
Pedal Detection Board.elf:     file format elf32-littlearm

Sections:
Idx Name          Size      VMA       LMA       File off  Algn
  0 .isr_vector   000001c4  08000000  08000000  00010000  2**0
                  CONTENTS, ALLOC, LOAD, READONLY, DATA
  1 .text         000044a0  080001c4  080001c4  000101c4  2**2
                  CONTENTS, ALLOC, LOAD, READONLY, CODE
  2 .rodata       00000068  08004664  08004664  00014664  2**2
                  CONTENTS, ALLOC, LOAD, READONLY, DATA
  3 .ARM.extab    00000000  080046cc  080046cc  00020158  2**0
                  CONTENTS
  4 .ARM          00000008  080046cc  080046cc  000146cc  2**2
                  CONTENTS, ALLOC, LOAD, READONLY, DATA
  5 .preinit_array 00000000  080046d4  080046d4  00020158  2**0
                  CONTENTS, ALLOC, LOAD, DATA
  6 .init_array   00000004  080046d4  080046d4  000146d4  2**2
                  CONTENTS, ALLOC, LOAD, DATA
  7 .fini_array   00000004  080046d8  080046d8  000146d8  2**2
                  CONTENTS, ALLOC, LOAD, DATA
  8 .data         00000158  20000000  080046dc  00020000  2**2
                  CONTENTS, ALLOC, LOAD, DATA
  9 .bss          00001e40  20000158  08004834  00020158  2**2
                  ALLOC
 10 ._user_heap_stack 00000600  20001f98  08004834  00021f98  2**0
                  ALLOC
 11 .ARM.attributes 00000030  00000000  00000000  00020158  2**0
                  CONTENTS, READONLY
 12 .comment      00000043  00000000  00000000  00020188  2**0
                  CONTENTS, READONLY
 13 .debug_frame  000003d4  00000000  00000000  000201cc  2**2
                  CONTENTS, READONLY, DEBUGGING, OCTETS

Disassembly of section .text:

080001c4 <__do_global_dtors_aux>:
 80001c4:	b510      	push	{r4, lr}
 80001c6:	4c05      	ldr	r4, [pc, #20]	; (80001dc <__do_global_dtors_aux+0x18>)
 80001c8:	7823      	ldrb	r3, [r4, #0]
 80001ca:	b933      	cbnz	r3, 80001da <__do_global_dtors_aux+0x16>
 80001cc:	4b04      	ldr	r3, [pc, #16]	; (80001e0 <__do_global_dtors_aux+0x1c>)
 80001ce:	b113      	cbz	r3, 80001d6 <__do_global_dtors_aux+0x12>
 80001d0:	4804      	ldr	r0, [pc, #16]	; (80001e4 <__do_global_dtors_aux+0x20>)
 80001d2:	f3af 8000 	nop.w
 80001d6:	2301      	movs	r3, #1
 80001d8:	7023      	strb	r3, [r4, #0]
 80001da:	bd10      	pop	{r4, pc}
 80001dc:	20000158 	.word	0x20000158
 80001e0:	00000000 	.word	0x00000000
 80001e4:	0800464c 	.word	0x0800464c

080001e8 <frame_dummy>:
 80001e8:	b508      	push	{r3, lr}
 80001ea:	4b03      	ldr	r3, [pc, #12]	; (80001f8 <frame_dummy+0x10>)
 80001ec:	b11b      	cbz	r3, 80001f6 <frame_dummy+0xe>
 80001ee:	4903      	ldr	r1, [pc, #12]	; (80001fc <frame_dummy+0x14>)
 80001f0:	4803      	ldr	r0, [pc, #12]	; (8000200 <frame_dummy+0x18>)
 80001f2:	f3af 8000 	nop.w
 80001f6:	bd08      	pop	{r3, pc}
 80001f8:	00000000 	.word	0x00000000
 80001fc:	2000015c 	.word	0x2000015c
 8000200:	0800464c 	.word	0x0800464c

08000204 <__aeabi_uldivmod>:
 8000204:	b953      	cbnz	r3, 800021c <__aeabi_uldivmod+0x18>
 8000206:	b94a      	cbnz	r2, 800021c <__aeabi_uldivmod+0x18>
 8000208:	2900      	cmp	r1, #0
 800020a:	bf08      	it	eq
 800020c:	2800      	cmpeq	r0, #0
 800020e:	bf1c      	itt	ne
 8000210:	f04f 31ff 	movne.w	r1, #4294967295
 8000214:	f04f 30ff 	movne.w	r0, #4294967295
 8000218:	f000 b970 	b.w	80004fc <__aeabi_idiv0>
 800021c:	f1ad 0c08 	sub.w	ip, sp, #8
 8000220:	e96d ce04 	strd	ip, lr, [sp, #-16]!
 8000224:	f000 f806 	bl	8000234 <__udivmoddi4>
 8000228:	f8dd e004 	ldr.w	lr, [sp, #4]
 800022c:	e9dd 2302 	ldrd	r2, r3, [sp, #8]
 8000230:	b004      	add	sp, #16
 8000232:	4770      	bx	lr

08000234 <__udivmoddi4>:
 8000234:	e92d 47f0 	stmdb	sp!, {r4, r5, r6, r7, r8, r9, sl, lr}
 8000238:	9e08      	ldr	r6, [sp, #32]
 800023a:	460d      	mov	r5, r1
 800023c:	4604      	mov	r4, r0
 800023e:	460f      	mov	r7, r1
 8000240:	2b00      	cmp	r3, #0
 8000242:	d14a      	bne.n	80002da <__udivmoddi4+0xa6>
 8000244:	428a      	cmp	r2, r1
 8000246:	4694      	mov	ip, r2
 8000248:	d965      	bls.n	8000316 <__udivmoddi4+0xe2>
 800024a:	fab2 f382 	clz	r3, r2
 800024e:	b143      	cbz	r3, 8000262 <__udivmoddi4+0x2e>
 8000250:	fa02 fc03 	lsl.w	ip, r2, r3
 8000254:	f1c3 0220 	rsb	r2, r3, #32
 8000258:	409f      	lsls	r7, r3
 800025a:	fa20 f202 	lsr.w	r2, r0, r2
 800025e:	4317      	orrs	r7, r2
 8000260:	409c      	lsls	r4, r3
 8000262:	ea4f 4e1c 	mov.w	lr, ip, lsr #16
 8000266:	fa1f f58c 	uxth.w	r5, ip
 800026a:	fbb7 f1fe 	udiv	r1, r7, lr
 800026e:	0c22      	lsrs	r2, r4, #16
 8000270:	fb0e 7711 	mls	r7, lr, r1, r7
 8000274:	ea42 4207 	orr.w	r2, r2, r7, lsl #16
 8000278:	fb01 f005 	mul.w	r0, r1, r5
 800027c:	4290      	cmp	r0, r2
 800027e:	d90a      	bls.n	8000296 <__udivmoddi4+0x62>
 8000280:	eb1c 0202 	adds.w	r2, ip, r2
 8000284:	f101 37ff 	add.w	r7, r1, #4294967295
 8000288:	f080 811c 	bcs.w	80004c4 <__udivmoddi4+0x290>
 800028c:	4290      	cmp	r0, r2
 800028e:	f240 8119 	bls.w	80004c4 <__udivmoddi4+0x290>
 8000292:	3902      	subs	r1, #2
 8000294:	4462      	add	r2, ip
 8000296:	1a12      	subs	r2, r2, r0
 8000298:	b2a4      	uxth	r4, r4
 800029a:	fbb2 f0fe 	udiv	r0, r2, lr
 800029e:	fb0e 2210 	mls	r2, lr, r0, r2
 80002a2:	ea44 4402 	orr.w	r4, r4, r2, lsl #16
 80002a6:	fb00 f505 	mul.w	r5, r0, r5
 80002aa:	42a5      	cmp	r5, r4
 80002ac:	d90a      	bls.n	80002c4 <__udivmoddi4+0x90>
 80002ae:	eb1c 0404 	adds.w	r4, ip, r4
 80002b2:	f100 32ff 	add.w	r2, r0, #4294967295
 80002b6:	f080 8107 	bcs.w	80004c8 <__udivmoddi4+0x294>
 80002ba:	42a5      	cmp	r5, r4
 80002bc:	f240 8104 	bls.w	80004c8 <__udivmoddi4+0x294>
 80002c0:	4464      	add	r4, ip
 80002c2:	3802      	subs	r0, #2
 80002c4:	ea40 4001 	orr.w	r0, r0, r1, lsl #16
 80002c8:	1b64      	subs	r4, r4, r5
 80002ca:	2100      	movs	r1, #0
 80002cc:	b11e      	cbz	r6, 80002d6 <__udivmoddi4+0xa2>
 80002ce:	40dc      	lsrs	r4, r3
 80002d0:	2300      	movs	r3, #0
 80002d2:	e9c6 4300 	strd	r4, r3, [r6]
 80002d6:	e8bd 87f0 	ldmia.w	sp!, {r4, r5, r6, r7, r8, r9, sl, pc}
 80002da:	428b      	cmp	r3, r1
 80002dc:	d908      	bls.n	80002f0 <__udivmoddi4+0xbc>
 80002de:	2e00      	cmp	r6, #0
 80002e0:	f000 80ed 	beq.w	80004be <__udivmoddi4+0x28a>
 80002e4:	2100      	movs	r1, #0
 80002e6:	e9c6 0500 	strd	r0, r5, [r6]
 80002ea:	4608      	mov	r0, r1
 80002ec:	e8bd 87f0 	ldmia.w	sp!, {r4, r5, r6, r7, r8, r9, sl, pc}
 80002f0:	fab3 f183 	clz	r1, r3
 80002f4:	2900      	cmp	r1, #0
 80002f6:	d149      	bne.n	800038c <__udivmoddi4+0x158>
 80002f8:	42ab      	cmp	r3, r5
 80002fa:	d302      	bcc.n	8000302 <__udivmoddi4+0xce>
 80002fc:	4282      	cmp	r2, r0
 80002fe:	f200 80f8 	bhi.w	80004f2 <__udivmoddi4+0x2be>
 8000302:	1a84      	subs	r4, r0, r2
 8000304:	eb65 0203 	sbc.w	r2, r5, r3
 8000308:	2001      	movs	r0, #1
 800030a:	4617      	mov	r7, r2
 800030c:	2e00      	cmp	r6, #0
 800030e:	d0e2      	beq.n	80002d6 <__udivmoddi4+0xa2>
 8000310:	e9c6 4700 	strd	r4, r7, [r6]
 8000314:	e7df      	b.n	80002d6 <__udivmoddi4+0xa2>
 8000316:	b902      	cbnz	r2, 800031a <__udivmoddi4+0xe6>
 8000318:	deff      	udf	#255	; 0xff
 800031a:	fab2 f382 	clz	r3, r2
 800031e:	2b00      	cmp	r3, #0
 8000320:	f040 8090 	bne.w	8000444 <__udivmoddi4+0x210>
 8000324:	1a8a      	subs	r2, r1, r2
 8000326:	ea4f 471c 	mov.w	r7, ip, lsr #16
 800032a:	fa1f fe8c 	uxth.w	lr, ip
 800032e:	2101      	movs	r1, #1
 8000330:	fbb2 f5f7 	udiv	r5, r2, r7
 8000334:	fb07 2015 	mls	r0, r7, r5, r2
 8000338:	0c22      	lsrs	r2, r4, #16
 800033a:	ea42 4200 	orr.w	r2, r2, r0, lsl #16
 800033e:	fb0e f005 	mul.w	r0, lr, r5
 8000342:	4290      	cmp	r0, r2
 8000344:	d908      	bls.n	8000358 <__udivmoddi4+0x124>
 8000346:	eb1c 0202 	adds.w	r2, ip, r2
 800034a:	f105 38ff 	add.w	r8, r5, #4294967295
 800034e:	d202      	bcs.n	8000356 <__udivmoddi4+0x122>
 8000350:	4290      	cmp	r0, r2
 8000352:	f200 80cb 	bhi.w	80004ec <__udivmoddi4+0x2b8>
 8000356:	4645      	mov	r5, r8
 8000358:	1a12      	subs	r2, r2, r0
 800035a:	b2a4      	uxth	r4, r4
 800035c:	fbb2 f0f7 	udiv	r0, r2, r7
 8000360:	fb07 2210 	mls	r2, r7, r0, r2
 8000364:	ea44 4402 	orr.w	r4, r4, r2, lsl #16
 8000368:	fb0e fe00 	mul.w	lr, lr, r0
 800036c:	45a6      	cmp	lr, r4
 800036e:	d908      	bls.n	8000382 <__udivmoddi4+0x14e>
 8000370:	eb1c 0404 	adds.w	r4, ip, r4
 8000374:	f100 32ff 	add.w	r2, r0, #4294967295
 8000378:	d202      	bcs.n	8000380 <__udivmoddi4+0x14c>
 800037a:	45a6      	cmp	lr, r4
 800037c:	f200 80bb 	bhi.w	80004f6 <__udivmoddi4+0x2c2>
 8000380:	4610      	mov	r0, r2
 8000382:	eba4 040e 	sub.w	r4, r4, lr
 8000386:	ea40 4005 	orr.w	r0, r0, r5, lsl #16
 800038a:	e79f      	b.n	80002cc <__udivmoddi4+0x98>
 800038c:	f1c1 0720 	rsb	r7, r1, #32
 8000390:	408b      	lsls	r3, r1
 8000392:	fa22 fc07 	lsr.w	ip, r2, r7
 8000396:	ea4c 0c03 	orr.w	ip, ip, r3
 800039a:	fa05 f401 	lsl.w	r4, r5, r1
 800039e:	fa20 f307 	lsr.w	r3, r0, r7
 80003a2:	40fd      	lsrs	r5, r7
 80003a4:	ea4f 491c 	mov.w	r9, ip, lsr #16
 80003a8:	4323      	orrs	r3, r4
 80003aa:	fbb5 f8f9 	udiv	r8, r5, r9
 80003ae:	fa1f fe8c 	uxth.w	lr, ip
 80003b2:	fb09 5518 	mls	r5, r9, r8, r5
 80003b6:	0c1c      	lsrs	r4, r3, #16
 80003b8:	ea44 4405 	orr.w	r4, r4, r5, lsl #16
 80003bc:	fb08 f50e 	mul.w	r5, r8, lr
 80003c0:	42a5      	cmp	r5, r4
 80003c2:	fa02 f201 	lsl.w	r2, r2, r1
 80003c6:	fa00 f001 	lsl.w	r0, r0, r1
 80003ca:	d90b      	bls.n	80003e4 <__udivmoddi4+0x1b0>
 80003cc:	eb1c 0404 	adds.w	r4, ip, r4
 80003d0:	f108 3aff 	add.w	sl, r8, #4294967295
 80003d4:	f080 8088 	bcs.w	80004e8 <__udivmoddi4+0x2b4>
 80003d8:	42a5      	cmp	r5, r4
 80003da:	f240 8085 	bls.w	80004e8 <__udivmoddi4+0x2b4>
 80003de:	f1a8 0802 	sub.w	r8, r8, #2
 80003e2:	4464      	add	r4, ip
 80003e4:	1b64      	subs	r4, r4, r5
 80003e6:	b29d      	uxth	r5, r3
 80003e8:	fbb4 f3f9 	udiv	r3, r4, r9
 80003ec:	fb09 4413 	mls	r4, r9, r3, r4
 80003f0:	ea45 4404 	orr.w	r4, r5, r4, lsl #16
 80003f4:	fb03 fe0e 	mul.w	lr, r3, lr
 80003f8:	45a6      	cmp	lr, r4
 80003fa:	d908      	bls.n	800040e <__udivmoddi4+0x1da>
 80003fc:	eb1c 0404 	adds.w	r4, ip, r4
 8000400:	f103 35ff 	add.w	r5, r3, #4294967295
 8000404:	d26c      	bcs.n	80004e0 <__udivmoddi4+0x2ac>
 8000406:	45a6      	cmp	lr, r4
 8000408:	d96a      	bls.n	80004e0 <__udivmoddi4+0x2ac>
 800040a:	3b02      	subs	r3, #2
 800040c:	4464      	add	r4, ip
 800040e:	ea43 4308 	orr.w	r3, r3, r8, lsl #16
 8000412:	fba3 9502 	umull	r9, r5, r3, r2
 8000416:	eba4 040e 	sub.w	r4, r4, lr
 800041a:	42ac      	cmp	r4, r5
 800041c:	46c8      	mov	r8, r9
 800041e:	46ae      	mov	lr, r5
 8000420:	d356      	bcc.n	80004d0 <__udivmoddi4+0x29c>
 8000422:	d053      	beq.n	80004cc <__udivmoddi4+0x298>
 8000424:	b156      	cbz	r6, 800043c <__udivmoddi4+0x208>
 8000426:	ebb0 0208 	subs.w	r2, r0, r8
 800042a:	eb64 040e 	sbc.w	r4, r4, lr
 800042e:	fa04 f707 	lsl.w	r7, r4, r7
 8000432:	40ca      	lsrs	r2, r1
 8000434:	40cc      	lsrs	r4, r1
 8000436:	4317      	orrs	r7, r2
 8000438:	e9c6 7400 	strd	r7, r4, [r6]
 800043c:	4618      	mov	r0, r3
 800043e:	2100      	movs	r1, #0
 8000440:	e8bd 87f0 	ldmia.w	sp!, {r4, r5, r6, r7, r8, r9, sl, pc}
 8000444:	f1c3 0120 	rsb	r1, r3, #32
 8000448:	fa02 fc03 	lsl.w	ip, r2, r3
 800044c:	fa20 f201 	lsr.w	r2, r0, r1
 8000450:	fa25 f101 	lsr.w	r1, r5, r1
 8000454:	409d      	lsls	r5, r3
 8000456:	432a      	orrs	r2, r5
 8000458:	ea4f 471c 	mov.w	r7, ip, lsr #16
 800045c:	fa1f fe8c 	uxth.w	lr, ip
 8000460:	fbb1 f0f7 	udiv	r0, r1, r7
 8000464:	fb07 1510 	mls	r5, r7, r0, r1
 8000468:	0c11      	lsrs	r1, r2, #16
 800046a:	ea41 4105 	orr.w	r1, r1, r5, lsl #16
 800046e:	fb00 f50e 	mul.w	r5, r0, lr
 8000472:	428d      	cmp	r5, r1
 8000474:	fa04 f403 	lsl.w	r4, r4, r3
 8000478:	d908      	bls.n	800048c <__udivmoddi4+0x258>
 800047a:	eb1c 0101 	adds.w	r1, ip, r1
 800047e:	f100 38ff 	add.w	r8, r0, #4294967295
 8000482:	d22f      	bcs.n	80004e4 <__udivmoddi4+0x2b0>
 8000484:	428d      	cmp	r5, r1
 8000486:	d92d      	bls.n	80004e4 <__udivmoddi4+0x2b0>
 8000488:	3802      	subs	r0, #2
 800048a:	4461      	add	r1, ip
 800048c:	1b49      	subs	r1, r1, r5
 800048e:	b292      	uxth	r2, r2
 8000490:	fbb1 f5f7 	udiv	r5, r1, r7
 8000494:	fb07 1115 	mls	r1, r7, r5, r1
 8000498:	ea42 4201 	orr.w	r2, r2, r1, lsl #16
 800049c:	fb05 f10e 	mul.w	r1, r5, lr
 80004a0:	4291      	cmp	r1, r2
 80004a2:	d908      	bls.n	80004b6 <__udivmoddi4+0x282>
 80004a4:	eb1c 0202 	adds.w	r2, ip, r2
 80004a8:	f105 38ff 	add.w	r8, r5, #4294967295
 80004ac:	d216      	bcs.n	80004dc <__udivmoddi4+0x2a8>
 80004ae:	4291      	cmp	r1, r2
 80004b0:	d914      	bls.n	80004dc <__udivmoddi4+0x2a8>
 80004b2:	3d02      	subs	r5, #2
 80004b4:	4462      	add	r2, ip
 80004b6:	1a52      	subs	r2, r2, r1
 80004b8:	ea45 4100 	orr.w	r1, r5, r0, lsl #16
 80004bc:	e738      	b.n	8000330 <__udivmoddi4+0xfc>
 80004be:	4631      	mov	r1, r6
 80004c0:	4630      	mov	r0, r6
 80004c2:	e708      	b.n	80002d6 <__udivmoddi4+0xa2>
 80004c4:	4639      	mov	r1, r7
 80004c6:	e6e6      	b.n	8000296 <__udivmoddi4+0x62>
 80004c8:	4610      	mov	r0, r2
 80004ca:	e6fb      	b.n	80002c4 <__udivmoddi4+0x90>
 80004cc:	4548      	cmp	r0, r9
 80004ce:	d2a9      	bcs.n	8000424 <__udivmoddi4+0x1f0>
 80004d0:	ebb9 0802 	subs.w	r8, r9, r2
 80004d4:	eb65 0e0c 	sbc.w	lr, r5, ip
 80004d8:	3b01      	subs	r3, #1
 80004da:	e7a3      	b.n	8000424 <__udivmoddi4+0x1f0>
 80004dc:	4645      	mov	r5, r8
 80004de:	e7ea      	b.n	80004b6 <__udivmoddi4+0x282>
 80004e0:	462b      	mov	r3, r5
 80004e2:	e794      	b.n	800040e <__udivmoddi4+0x1da>
 80004e4:	4640      	mov	r0, r8
 80004e6:	e7d1      	b.n	800048c <__udivmoddi4+0x258>
 80004e8:	46d0      	mov	r8, sl
 80004ea:	e77b      	b.n	80003e4 <__udivmoddi4+0x1b0>
 80004ec:	3d02      	subs	r5, #2
 80004ee:	4462      	add	r2, ip
 80004f0:	e732      	b.n	8000358 <__udivmoddi4+0x124>
 80004f2:	4608      	mov	r0, r1
 80004f4:	e70a      	b.n	800030c <__udivmoddi4+0xd8>
 80004f6:	4464      	add	r4, ip
 80004f8:	3802      	subs	r0, #2
 80004fa:	e742      	b.n	8000382 <__udivmoddi4+0x14e>

080004fc <__aeabi_idiv0>:
 80004fc:	4770      	bx	lr
 80004fe:	bf00      	nop

08000500 <Error_Handler>:
 8000500:	b508      	push	{r3, lr}
 8000502:	b672      	cpsid	i
 8000504:	4802      	ldr	r0, [pc, #8]	; (8000510 <Error_Handler+0x10>)
 8000506:	2201      	movs	r2, #1
 8000508:	2108      	movs	r1, #8
 800050a:	f000 ffe1 	bl	80014d0 <HAL_GPIO_WritePin>
 800050e:	e7fe      	b.n	800050e <Error_Handler+0xe>
 8000510:	40021000 	.word	0x40021000

08000514 <SystemClock_Config>:
 8000514:	b510      	push	{r4, lr}
 8000516:	2410      	movs	r4, #16
 8000518:	b094      	sub	sp, #80	; 0x50
 800051a:	4622      	mov	r2, r4
 800051c:	2100      	movs	r1, #0
 800051e:	a809      	add	r0, sp, #36	; 0x24
 8000520:	f004 f850 	bl	80045c4 <memset>
 8000524:	2214      	movs	r2, #20
 8000526:	2100      	movs	r1, #0
 8000528:	a802      	add	r0, sp, #8
 800052a:	f004 f84b 	bl	80045c4 <memset>
 800052e:	4b1f      	ldr	r3, [pc, #124]	; (80005ac <SystemClock_Config+0x98>)
 8000530:	2100      	movs	r1, #0
 8000532:	9100      	str	r1, [sp, #0]
 8000534:	6c1a      	ldr	r2, [r3, #64]	; 0x40
 8000536:	f042 5280 	orr.w	r2, r2, #268435456	; 0x10000000
 800053a:	641a      	str	r2, [r3, #64]	; 0x40
 800053c:	6c1b      	ldr	r3, [r3, #64]	; 0x40
 800053e:	f003 5380 	and.w	r3, r3, #268435456	; 0x10000000
 8000542:	9300      	str	r3, [sp, #0]
 8000544:	9b00      	ldr	r3, [sp, #0]
 8000546:	4b1a      	ldr	r3, [pc, #104]	; (80005b0 <SystemClock_Config+0x9c>)
 8000548:	9101      	str	r1, [sp, #4]
 800054a:	681a      	ldr	r2, [r3, #0]
 800054c:	f442 4240 	orr.w	r2, r2, #49152	; 0xc000
 8000550:	601a      	str	r2, [r3, #0]
 8000552:	681b      	ldr	r3, [r3, #0]
 8000554:	f403 4340 	and.w	r3, r3, #49152	; 0xc000
 8000558:	9301      	str	r3, [sp, #4]
 800055a:	2203      	movs	r2, #3
 800055c:	9b01      	ldr	r3, [sp, #4]
 800055e:	f44f 3380 	mov.w	r3, #65536	; 0x10000
 8000562:	e9cd 2307 	strd	r2, r3, [sp, #28]
 8000566:	2301      	movs	r3, #1
 8000568:	e9cd 340a 	strd	r3, r4, [sp, #40]	; 0x28
 800056c:	f44f 0180 	mov.w	r1, #4194304	; 0x400000
 8000570:	2302      	movs	r3, #2
 8000572:	e9cd 310d 	strd	r3, r1, [sp, #52]	; 0x34
 8000576:	2004      	movs	r0, #4
 8000578:	2148      	movs	r1, #72	; 0x48
 800057a:	e9cd 010f 	strd	r0, r1, [sp, #60]	; 0x3c
 800057e:	a807      	add	r0, sp, #28
 8000580:	e9cd 3211 	strd	r3, r2, [sp, #68]	; 0x44
 8000584:	9313      	str	r3, [sp, #76]	; 0x4c
 8000586:	f001 ff35 	bl	80023f4 <HAL_RCC_OscConfig>
 800058a:	4601      	mov	r1, r0
 800058c:	b108      	cbz	r0, 8000592 <SystemClock_Config+0x7e>
 800058e:	f7ff ffb7 	bl	8000500 <Error_Handler>
 8000592:	230f      	movs	r3, #15
 8000594:	e9cd 3002 	strd	r3, r0, [sp, #8]
 8000598:	e9cd 0004 	strd	r0, r0, [sp, #16]
 800059c:	9006      	str	r0, [sp, #24]
 800059e:	a802      	add	r0, sp, #8
 80005a0:	f001 fd58 	bl	8002054 <HAL_RCC_ClockConfig>
 80005a4:	2800      	cmp	r0, #0
 80005a6:	d1f2      	bne.n	800058e <SystemClock_Config+0x7a>
 80005a8:	b014      	add	sp, #80	; 0x50
 80005aa:	bd10      	pop	{r4, pc}
 80005ac:	40023800 	.word	0x40023800
 80005b0:	40007000 	.word	0x40007000

080005b4 <main>:
 80005b4:	e92d 4ff0 	stmdb	sp!, {r4, r5, r6, r7, r8, r9, sl, fp, lr}
 80005b8:	b097      	sub	sp, #92	; 0x5c
 80005ba:	f000 facf 	bl	8000b5c <HAL_Init>
 80005be:	f7ff ffa9 	bl	8000514 <SystemClock_Config>
 80005c2:	2214      	movs	r2, #20
 80005c4:	2100      	movs	r1, #0
 80005c6:	a810      	add	r0, sp, #64	; 0x40
 80005c8:	f003 fffc 	bl	80045c4 <memset>
 80005cc:	2400      	movs	r4, #0
 80005ce:	4b98      	ldr	r3, [pc, #608]	; (8000830 <main+0x27c>)
 80005d0:	9403      	str	r4, [sp, #12]
 80005d2:	6b1a      	ldr	r2, [r3, #48]	; 0x30
 80005d4:	4897      	ldr	r0, [pc, #604]	; (8000834 <main+0x280>)
 80005d6:	f042 0210 	orr.w	r2, r2, #16
 80005da:	631a      	str	r2, [r3, #48]	; 0x30
 80005dc:	6b1a      	ldr	r2, [r3, #48]	; 0x30
 80005de:	f002 0210 	and.w	r2, r2, #16
 80005e2:	9203      	str	r2, [sp, #12]
 80005e4:	9a03      	ldr	r2, [sp, #12]
 80005e6:	9404      	str	r4, [sp, #16]
 80005e8:	6b1a      	ldr	r2, [r3, #48]	; 0x30
 80005ea:	f042 0280 	orr.w	r2, r2, #128	; 0x80
 80005ee:	631a      	str	r2, [r3, #48]	; 0x30
 80005f0:	6b1a      	ldr	r2, [r3, #48]	; 0x30
 80005f2:	f002 0280 	and.w	r2, r2, #128	; 0x80
 80005f6:	9204      	str	r2, [sp, #16]
 80005f8:	9a04      	ldr	r2, [sp, #16]
 80005fa:	9405      	str	r4, [sp, #20]
 80005fc:	6b1a      	ldr	r2, [r3, #48]	; 0x30
 80005fe:	f042 0201 	orr.w	r2, r2, #1
 8000602:	631a      	str	r2, [r3, #48]	; 0x30
 8000604:	6b1a      	ldr	r2, [r3, #48]	; 0x30
 8000606:	f002 0201 	and.w	r2, r2, #1
 800060a:	9205      	str	r2, [sp, #20]
 800060c:	9a05      	ldr	r2, [sp, #20]
 800060e:	9406      	str	r4, [sp, #24]
 8000610:	6b1a      	ldr	r2, [r3, #48]	; 0x30
 8000612:	f042 0204 	orr.w	r2, r2, #4
 8000616:	631a      	str	r2, [r3, #48]	; 0x30
 8000618:	6b1a      	ldr	r2, [r3, #48]	; 0x30
 800061a:	f002 0204 	and.w	r2, r2, #4
 800061e:	9206      	str	r2, [sp, #24]
 8000620:	9a06      	ldr	r2, [sp, #24]
 8000622:	9407      	str	r4, [sp, #28]
 8000624:	6b1a      	ldr	r2, [r3, #48]	; 0x30
 8000626:	f042 0202 	orr.w	r2, r2, #2
 800062a:	631a      	str	r2, [r3, #48]	; 0x30
 800062c:	6b1b      	ldr	r3, [r3, #48]	; 0x30
 800062e:	f003 0302 	and.w	r3, r3, #2
 8000632:	9307      	str	r3, [sp, #28]
 8000634:	2201      	movs	r2, #1
 8000636:	2128      	movs	r1, #40	; 0x28
 8000638:	9b07      	ldr	r3, [sp, #28]
 800063a:	f000 ff49 	bl	80014d0 <HAL_GPIO_WritePin>
 800063e:	4622      	mov	r2, r4
 8000640:	487d      	ldr	r0, [pc, #500]	; (8000838 <main+0x284>)
 8000642:	2149      	movs	r1, #73	; 0x49
 8000644:	f000 ff44 	bl	80014d0 <HAL_GPIO_WritePin>
 8000648:	f248 0354 	movw	r3, #32852	; 0x8054
 800064c:	4879      	ldr	r0, [pc, #484]	; (8000834 <main+0x280>)
 800064e:	9412      	str	r4, [sp, #72]	; 0x48
 8000650:	a910      	add	r1, sp, #64	; 0x40
 8000652:	2501      	movs	r5, #1
 8000654:	e9cd 3410 	strd	r3, r4, [sp, #64]	; 0x40
 8000658:	f000 fe6c 	bl	8001334 <HAL_GPIO_Init>
 800065c:	2328      	movs	r3, #40	; 0x28
 800065e:	4875      	ldr	r0, [pc, #468]	; (8000834 <main+0x280>)
 8000660:	a910      	add	r1, sp, #64	; 0x40
 8000662:	e9cd 3510 	strd	r3, r5, [sp, #64]	; 0x40
 8000666:	e9cd 5412 	strd	r5, r4, [sp, #72]	; 0x48
 800066a:	f000 fe63 	bl	8001334 <HAL_GPIO_Init>
 800066e:	2309      	movs	r3, #9
 8000670:	e9cd 3510 	strd	r3, r5, [sp, #64]	; 0x40
 8000674:	4870      	ldr	r0, [pc, #448]	; (8000838 <main+0x284>)
 8000676:	2302      	movs	r3, #2
 8000678:	a910      	add	r1, sp, #64	; 0x40
 800067a:	e9cd 3412 	strd	r3, r4, [sp, #72]	; 0x48
 800067e:	f000 fe59 	bl	8001334 <HAL_GPIO_Init>
 8000682:	2306      	movs	r3, #6
 8000684:	486c      	ldr	r0, [pc, #432]	; (8000838 <main+0x284>)
 8000686:	9412      	str	r4, [sp, #72]	; 0x48
 8000688:	a910      	add	r1, sp, #64	; 0x40
 800068a:	e9cd 3410 	strd	r3, r4, [sp, #64]	; 0x40
 800068e:	f000 fe51 	bl	8001334 <HAL_GPIO_Init>
 8000692:	2340      	movs	r3, #64	; 0x40
 8000694:	e9cd 3510 	strd	r3, r5, [sp, #64]	; 0x40
 8000698:	4867      	ldr	r0, [pc, #412]	; (8000838 <main+0x284>)
 800069a:	9412      	str	r4, [sp, #72]	; 0x48
 800069c:	2303      	movs	r3, #3
 800069e:	a910      	add	r1, sp, #64	; 0x40
 80006a0:	9313      	str	r3, [sp, #76]	; 0x4c
 80006a2:	f000 fe47 	bl	8001334 <HAL_GPIO_Init>
 80006a6:	f44f 4380 	mov.w	r3, #16384	; 0x4000
 80006aa:	4862      	ldr	r0, [pc, #392]	; (8000834 <main+0x280>)
 80006ac:	9512      	str	r5, [sp, #72]	; 0x48
 80006ae:	a910      	add	r1, sp, #64	; 0x40
 80006b0:	e9cd 3410 	strd	r3, r4, [sp, #64]	; 0x40
 80006b4:	f000 fe3e 	bl	8001334 <HAL_GPIO_Init>
 80006b8:	4860      	ldr	r0, [pc, #384]	; (800083c <main+0x288>)
 80006ba:	4b61      	ldr	r3, [pc, #388]	; (8000840 <main+0x28c>)
 80006bc:	6084      	str	r4, [r0, #8]
 80006be:	e9c0 3400 	strd	r3, r4, [r0]
 80006c2:	4b60      	ldr	r3, [pc, #384]	; (8000844 <main+0x290>)
 80006c4:	6105      	str	r5, [r0, #16]
 80006c6:	7605      	strb	r5, [r0, #24]
 80006c8:	f880 4020 	strb.w	r4, [r0, #32]
 80006cc:	62c4      	str	r4, [r0, #44]	; 0x2c
 80006ce:	6283      	str	r3, [r0, #40]	; 0x28
 80006d0:	60c4      	str	r4, [r0, #12]
 80006d2:	61c5      	str	r5, [r0, #28]
 80006d4:	f880 4030 	strb.w	r4, [r0, #48]	; 0x30
 80006d8:	6145      	str	r5, [r0, #20]
 80006da:	f000 fa7f 	bl	8000bdc <HAL_ADC_Init>
 80006de:	b108      	cbz	r0, 80006e4 <main+0x130>
 80006e0:	f7ff ff0e 	bl	8000500 <Error_Handler>
 80006e4:	4b58      	ldr	r3, [pc, #352]	; (8000848 <main+0x294>)
 80006e6:	4959      	ldr	r1, [pc, #356]	; (800084c <main+0x298>)
 80006e8:	6198      	str	r0, [r3, #24]
 80006ea:	e9c3 0002 	strd	r0, r0, [r3, #8]
 80006ee:	e9c3 0004 	strd	r0, r0, [r3, #16]
 80006f2:	2210      	movs	r2, #16
 80006f4:	8398      	strh	r0, [r3, #28]
 80006f6:	4618      	mov	r0, r3
 80006f8:	e9c3 1200 	strd	r1, r2, [r3]
 80006fc:	f000 fc8a 	bl	8001014 <HAL_CAN_Init>
 8000700:	4604      	mov	r4, r0
 8000702:	2800      	cmp	r0, #0
 8000704:	d1ec      	bne.n	80006e0 <main+0x12c>
 8000706:	f003 fc5d 	bl	8003fc4 <MX_USB_DEVICE_Init>
 800070a:	4851      	ldr	r0, [pc, #324]	; (8000850 <main+0x29c>)
 800070c:	4b51      	ldr	r3, [pc, #324]	; (8000854 <main+0x2a0>)
 800070e:	6284      	str	r4, [r0, #40]	; 0x28
 8000710:	f44f 7282 	mov.w	r2, #260	; 0x104
 8000714:	e9c0 3200 	strd	r3, r2, [r0]
 8000718:	f44f 2280 	mov.w	r2, #262144	; 0x40000
 800071c:	e9c0 2406 	strd	r2, r4, [r0, #24]
 8000720:	220a      	movs	r2, #10
 8000722:	e9c0 4402 	strd	r4, r4, [r0, #8]
 8000726:	e9c0 4404 	strd	r4, r4, [r0, #16]
 800072a:	e9c0 4408 	strd	r4, r4, [r0, #32]
 800072e:	62c2      	str	r2, [r0, #44]	; 0x2c
 8000730:	f002 f816 	bl	8002760 <HAL_SPI_Init>
 8000734:	4606      	mov	r6, r0
 8000736:	2800      	cmp	r0, #0
 8000738:	d1d2      	bne.n	80006e0 <main+0x12c>
 800073a:	4b47      	ldr	r3, [pc, #284]	; (8000858 <main+0x2a4>)
 800073c:	f8df 80f8 	ldr.w	r8, [pc, #248]	; 8000838 <main+0x284>
 8000740:	cb0f      	ldmia	r3, {r0, r1, r2, r3}
 8000742:	ac08      	add	r4, sp, #32
 8000744:	e884 000f 	stmia.w	r4, {r0, r1, r2, r3}
 8000748:	2004      	movs	r0, #4
 800074a:	f003 fe87 	bl	800445c <malloc>
 800074e:	9612      	str	r6, [sp, #72]	; 0x48
 8000750:	9610      	str	r6, [sp, #64]	; 0x40
 8000752:	9613      	str	r6, [sp, #76]	; 0x4c
 8000754:	2304      	movs	r3, #4
 8000756:	f106 4680 	add.w	r6, r6, #1073741824	; 0x40000000
 800075a:	4604      	mov	r4, r0
 800075c:	9314      	str	r3, [sp, #80]	; 0x50
 800075e:	f506 3604 	add.w	r6, r6, #135168	; 0x21000
 8000762:	2104      	movs	r1, #4
 8000764:	4640      	mov	r0, r8
 8000766:	f000 fead 	bl	80014c4 <HAL_GPIO_ReadPin>
 800076a:	2102      	movs	r1, #2
 800076c:	9001      	str	r0, [sp, #4]
 800076e:	4640      	mov	r0, r8
 8000770:	f000 fea8 	bl	80014c4 <HAL_GPIO_ReadPin>
 8000774:	2110      	movs	r1, #16
 8000776:	4630      	mov	r0, r6
 8000778:	f000 fea4 	bl	80014c4 <HAL_GPIO_ReadPin>
 800077c:	2104      	movs	r1, #4
 800077e:	4630      	mov	r0, r6
 8000780:	f000 fea0 	bl	80014c4 <HAL_GPIO_ReadPin>
 8000784:	2140      	movs	r1, #64	; 0x40
 8000786:	4630      	mov	r0, r6
 8000788:	f000 fe9c 	bl	80014c4 <HAL_GPIO_ReadPin>
 800078c:	f44f 4100 	mov.w	r1, #32768	; 0x8000
 8000790:	4630      	mov	r0, r6
 8000792:	f000 fe97 	bl	80014c4 <HAL_GPIO_ReadPin>
 8000796:	f44f 4180 	mov.w	r1, #16384	; 0x4000
 800079a:	4607      	mov	r7, r0
 800079c:	4630      	mov	r0, r6
 800079e:	f000 fe91 	bl	80014c4 <HAL_GPIO_ReadPin>
 80007a2:	9a01      	ldr	r2, [sp, #4]
 80007a4:	b12f      	cbz	r7, 80007b2 <main+0x1fe>
 80007a6:	4823      	ldr	r0, [pc, #140]	; (8000834 <main+0x280>)
 80007a8:	2201      	movs	r2, #1
 80007aa:	2108      	movs	r1, #8
 80007ac:	f000 fe90 	bl	80014d0 <HAL_GPIO_WritePin>
 80007b0:	e796      	b.n	80006e0 <main+0x12c>
 80007b2:	2108      	movs	r1, #8
 80007b4:	4640      	mov	r0, r8
 80007b6:	f000 fe8b 	bl	80014d0 <HAL_GPIO_WritePin>
 80007ba:	4d20      	ldr	r5, [pc, #128]	; (800083c <main+0x288>)
 80007bc:	f10d 0a20 	add.w	sl, sp, #32
 80007c0:	f104 39ff 	add.w	r9, r4, #4294967295
 80007c4:	f104 0b03 	add.w	fp, r4, #3
 80007c8:	f85a 2b04 	ldr.w	r2, [sl], #4
 80007cc:	920c      	str	r2, [sp, #48]	; 0x30
 80007ce:	2301      	movs	r3, #1
 80007d0:	a90c      	add	r1, sp, #48	; 0x30
 80007d2:	4628      	mov	r0, r5
 80007d4:	e9cd 770e 	strd	r7, r7, [sp, #56]	; 0x38
 80007d8:	930d      	str	r3, [sp, #52]	; 0x34
 80007da:	f000 fb8b 	bl	8000ef4 <HAL_ADC_ConfigChannel>
 80007de:	2800      	cmp	r0, #0
 80007e0:	f47f af7e 	bne.w	80006e0 <main+0x12c>
 80007e4:	4628      	mov	r0, r5
 80007e6:	f000 fa9f 	bl	8000d28 <HAL_ADC_Start>
 80007ea:	f44f 71fa 	mov.w	r1, #500	; 0x1f4
 80007ee:	4628      	mov	r0, r5
 80007f0:	f000 fb29 	bl	8000e46 <HAL_ADC_PollForConversion>
 80007f4:	2800      	cmp	r0, #0
 80007f6:	f47f af73 	bne.w	80006e0 <main+0x12c>
 80007fa:	4628      	mov	r0, r5
 80007fc:	f000 fb76 	bl	8000eec <HAL_ADC_GetValue>
 8000800:	f809 0f01 	strb.w	r0, [r9, #1]!
 8000804:	4628      	mov	r0, r5
 8000806:	f000 fb03 	bl	8000e10 <HAL_ADC_Stop>
 800080a:	45d9      	cmp	r9, fp
 800080c:	d1dc      	bne.n	80007c8 <main+0x214>
 800080e:	480e      	ldr	r0, [pc, #56]	; (8000848 <main+0x294>)
 8000810:	f000 fc7b 	bl	800110a <HAL_CAN_Start>
 8000814:	480c      	ldr	r0, [pc, #48]	; (8000848 <main+0x294>)
 8000816:	ab02      	add	r3, sp, #8
 8000818:	4622      	mov	r2, r4
 800081a:	a910      	add	r1, sp, #64	; 0x40
 800081c:	f000 fcd1 	bl	80011c2 <HAL_CAN_AddTxMessage>
 8000820:	2800      	cmp	r0, #0
 8000822:	f47f af5d 	bne.w	80006e0 <main+0x12c>
 8000826:	4808      	ldr	r0, [pc, #32]	; (8000848 <main+0x294>)
 8000828:	f000 fc9d 	bl	8001166 <HAL_CAN_Stop>
 800082c:	e799      	b.n	8000762 <main+0x1ae>
 800082e:	bf00      	nop
 8000830:	40023800 	.word	0x40023800
 8000834:	40021000 	.word	0x40021000
 8000838:	40020000 	.word	0x40020000
 800083c:	20000174 	.word	0x20000174
 8000840:	40012000 	.word	0x40012000
 8000844:	0f000001 	.word	0x0f000001
 8000848:	200001bc 	.word	0x200001bc
 800084c:	40006400 	.word	0x40006400
 8000850:	200001e4 	.word	0x200001e4
 8000854:	40013000 	.word	0x40013000
 8000858:	08004664 	.word	0x08004664

0800085c <HAL_MspInit>:
 800085c:	b082      	sub	sp, #8
 800085e:	4b0c      	ldr	r3, [pc, #48]	; (8000890 <HAL_MspInit+0x34>)
 8000860:	2100      	movs	r1, #0
 8000862:	9100      	str	r1, [sp, #0]
 8000864:	6c5a      	ldr	r2, [r3, #68]	; 0x44
 8000866:	f442 4280 	orr.w	r2, r2, #16384	; 0x4000
 800086a:	645a      	str	r2, [r3, #68]	; 0x44
 800086c:	6c5a      	ldr	r2, [r3, #68]	; 0x44
 800086e:	f402 4280 	and.w	r2, r2, #16384	; 0x4000
 8000872:	9200      	str	r2, [sp, #0]
 8000874:	9a00      	ldr	r2, [sp, #0]
 8000876:	9101      	str	r1, [sp, #4]
 8000878:	6c1a      	ldr	r2, [r3, #64]	; 0x40
 800087a:	f042 5280 	orr.w	r2, r2, #268435456	; 0x10000000
 800087e:	641a      	str	r2, [r3, #64]	; 0x40
 8000880:	6c1b      	ldr	r3, [r3, #64]	; 0x40
 8000882:	f003 5380 	and.w	r3, r3, #268435456	; 0x10000000
 8000886:	9301      	str	r3, [sp, #4]
 8000888:	9b01      	ldr	r3, [sp, #4]
 800088a:	b002      	add	sp, #8
 800088c:	4770      	bx	lr
 800088e:	bf00      	nop
 8000890:	40023800 	.word	0x40023800

08000894 <HAL_ADC_MspInit>:
 8000894:	b530      	push	{r4, r5, lr}
 8000896:	2214      	movs	r2, #20
 8000898:	b08b      	sub	sp, #44	; 0x2c
 800089a:	4604      	mov	r4, r0
 800089c:	2100      	movs	r1, #0
 800089e:	eb0d 0002 	add.w	r0, sp, r2
 80008a2:	f003 fe8f 	bl	80045c4 <memset>
 80008a6:	6822      	ldr	r2, [r4, #0]
 80008a8:	4b23      	ldr	r3, [pc, #140]	; (8000938 <HAL_ADC_MspInit+0xa4>)
 80008aa:	429a      	cmp	r2, r3
 80008ac:	d142      	bne.n	8000934 <HAL_ADC_MspInit+0xa0>
 80008ae:	f503 338c 	add.w	r3, r3, #71680	; 0x11800
 80008b2:	2400      	movs	r4, #0
 80008b4:	9401      	str	r4, [sp, #4]
 80008b6:	6c5a      	ldr	r2, [r3, #68]	; 0x44
 80008b8:	4820      	ldr	r0, [pc, #128]	; (800093c <HAL_ADC_MspInit+0xa8>)
 80008ba:	f442 7280 	orr.w	r2, r2, #256	; 0x100
 80008be:	645a      	str	r2, [r3, #68]	; 0x44
 80008c0:	6c5a      	ldr	r2, [r3, #68]	; 0x44
 80008c2:	f402 7280 	and.w	r2, r2, #256	; 0x100
 80008c6:	9201      	str	r2, [sp, #4]
 80008c8:	9a01      	ldr	r2, [sp, #4]
 80008ca:	9402      	str	r4, [sp, #8]
 80008cc:	6b1a      	ldr	r2, [r3, #48]	; 0x30
 80008ce:	f042 0201 	orr.w	r2, r2, #1
 80008d2:	631a      	str	r2, [r3, #48]	; 0x30
 80008d4:	6b1a      	ldr	r2, [r3, #48]	; 0x30
 80008d6:	f002 0201 	and.w	r2, r2, #1
 80008da:	9202      	str	r2, [sp, #8]
 80008dc:	9a02      	ldr	r2, [sp, #8]
 80008de:	9403      	str	r4, [sp, #12]
 80008e0:	6b1a      	ldr	r2, [r3, #48]	; 0x30
 80008e2:	f042 0204 	orr.w	r2, r2, #4
 80008e6:	631a      	str	r2, [r3, #48]	; 0x30
 80008e8:	6b1a      	ldr	r2, [r3, #48]	; 0x30
 80008ea:	f002 0204 	and.w	r2, r2, #4
 80008ee:	9203      	str	r2, [sp, #12]
 80008f0:	9a03      	ldr	r2, [sp, #12]
 80008f2:	9404      	str	r4, [sp, #16]
 80008f4:	6b1a      	ldr	r2, [r3, #48]	; 0x30
 80008f6:	f042 0202 	orr.w	r2, r2, #2
 80008fa:	631a      	str	r2, [r3, #48]	; 0x30
 80008fc:	6b1b      	ldr	r3, [r3, #48]	; 0x30
 80008fe:	f003 0302 	and.w	r3, r3, #2
 8000902:	9304      	str	r3, [sp, #16]
 8000904:	2503      	movs	r5, #3
 8000906:	9b04      	ldr	r3, [sp, #16]
 8000908:	a905      	add	r1, sp, #20
 800090a:	2380      	movs	r3, #128	; 0x80
 800090c:	e9cd 3505 	strd	r3, r5, [sp, #20]
 8000910:	f000 fd10 	bl	8001334 <HAL_GPIO_Init>
 8000914:	2330      	movs	r3, #48	; 0x30
 8000916:	480a      	ldr	r0, [pc, #40]	; (8000940 <HAL_ADC_MspInit+0xac>)
 8000918:	9407      	str	r4, [sp, #28]
 800091a:	a905      	add	r1, sp, #20
 800091c:	e9cd 3505 	strd	r3, r5, [sp, #20]
 8000920:	f000 fd08 	bl	8001334 <HAL_GPIO_Init>
 8000924:	2301      	movs	r3, #1
 8000926:	4807      	ldr	r0, [pc, #28]	; (8000944 <HAL_ADC_MspInit+0xb0>)
 8000928:	9407      	str	r4, [sp, #28]
 800092a:	a905      	add	r1, sp, #20
 800092c:	e9cd 3505 	strd	r3, r5, [sp, #20]
 8000930:	f000 fd00 	bl	8001334 <HAL_GPIO_Init>
 8000934:	b00b      	add	sp, #44	; 0x2c
 8000936:	bd30      	pop	{r4, r5, pc}
 8000938:	40012000 	.word	0x40012000
 800093c:	40020000 	.word	0x40020000
 8000940:	40020800 	.word	0x40020800
 8000944:	40020400 	.word	0x40020400

08000948 <HAL_CAN_MspInit>:
 8000948:	b510      	push	{r4, lr}
 800094a:	4604      	mov	r4, r0
 800094c:	b088      	sub	sp, #32
 800094e:	2214      	movs	r2, #20
 8000950:	2100      	movs	r1, #0
 8000952:	a803      	add	r0, sp, #12
 8000954:	f003 fe36 	bl	80045c4 <memset>
 8000958:	6822      	ldr	r2, [r4, #0]
 800095a:	4b14      	ldr	r3, [pc, #80]	; (80009ac <HAL_CAN_MspInit+0x64>)
 800095c:	429a      	cmp	r2, r3
 800095e:	d123      	bne.n	80009a8 <HAL_CAN_MspInit+0x60>
 8000960:	f503 33ea 	add.w	r3, r3, #119808	; 0x1d400
 8000964:	2100      	movs	r1, #0
 8000966:	9101      	str	r1, [sp, #4]
 8000968:	6c1a      	ldr	r2, [r3, #64]	; 0x40
 800096a:	4811      	ldr	r0, [pc, #68]	; (80009b0 <HAL_CAN_MspInit+0x68>)
 800096c:	f042 7200 	orr.w	r2, r2, #33554432	; 0x2000000
 8000970:	641a      	str	r2, [r3, #64]	; 0x40
 8000972:	6c1a      	ldr	r2, [r3, #64]	; 0x40
 8000974:	f002 7200 	and.w	r2, r2, #33554432	; 0x2000000
 8000978:	9201      	str	r2, [sp, #4]
 800097a:	9a01      	ldr	r2, [sp, #4]
 800097c:	9102      	str	r1, [sp, #8]
 800097e:	6b1a      	ldr	r2, [r3, #48]	; 0x30
 8000980:	f042 0202 	orr.w	r2, r2, #2
 8000984:	631a      	str	r2, [r3, #48]	; 0x30
 8000986:	6b1b      	ldr	r3, [r3, #48]	; 0x30
 8000988:	f003 0302 	and.w	r3, r3, #2
 800098c:	9302      	str	r3, [sp, #8]
 800098e:	9b02      	ldr	r3, [sp, #8]
 8000990:	f44f 7240 	mov.w	r2, #768	; 0x300
 8000994:	2302      	movs	r3, #2
 8000996:	2103      	movs	r1, #3
 8000998:	e9cd 2303 	strd	r2, r3, [sp, #12]
 800099c:	2308      	movs	r3, #8
 800099e:	e9cd 1306 	strd	r1, r3, [sp, #24]
 80009a2:	a903      	add	r1, sp, #12
 80009a4:	f000 fcc6 	bl	8001334 <HAL_GPIO_Init>
 80009a8:	b008      	add	sp, #32
 80009aa:	bd10      	pop	{r4, pc}
 80009ac:	40006400 	.word	0x40006400
 80009b0:	40020400 	.word	0x40020400

080009b4 <HAL_SPI_MspInit>:
 80009b4:	b5f0      	push	{r4, r5, r6, r7, lr}
 80009b6:	4604      	mov	r4, r0
 80009b8:	b089      	sub	sp, #36	; 0x24
 80009ba:	2214      	movs	r2, #20
 80009bc:	2100      	movs	r1, #0
 80009be:	a803      	add	r0, sp, #12
 80009c0:	f003 fe00 	bl	80045c4 <memset>
 80009c4:	6822      	ldr	r2, [r4, #0]
 80009c6:	4b1e      	ldr	r3, [pc, #120]	; (8000a40 <HAL_SPI_MspInit+0x8c>)
 80009c8:	429a      	cmp	r2, r3
 80009ca:	d136      	bne.n	8000a3a <HAL_SPI_MspInit+0x86>
 80009cc:	f503 3384 	add.w	r3, r3, #67584	; 0x10800
 80009d0:	2400      	movs	r4, #0
 80009d2:	9400      	str	r4, [sp, #0]
 80009d4:	6c5a      	ldr	r2, [r3, #68]	; 0x44
 80009d6:	481b      	ldr	r0, [pc, #108]	; (8000a44 <HAL_SPI_MspInit+0x90>)
 80009d8:	f442 5280 	orr.w	r2, r2, #4096	; 0x1000
 80009dc:	645a      	str	r2, [r3, #68]	; 0x44
 80009de:	6c5a      	ldr	r2, [r3, #68]	; 0x44
 80009e0:	f402 5280 	and.w	r2, r2, #4096	; 0x1000
 80009e4:	9200      	str	r2, [sp, #0]
 80009e6:	9a00      	ldr	r2, [sp, #0]
 80009e8:	9401      	str	r4, [sp, #4]
 80009ea:	6b1a      	ldr	r2, [r3, #48]	; 0x30
 80009ec:	f042 0201 	orr.w	r2, r2, #1
 80009f0:	631a      	str	r2, [r3, #48]	; 0x30
 80009f2:	6b1a      	ldr	r2, [r3, #48]	; 0x30
 80009f4:	f002 0201 	and.w	r2, r2, #1
 80009f8:	9201      	str	r2, [sp, #4]
 80009fa:	9a01      	ldr	r2, [sp, #4]
 80009fc:	9402      	str	r4, [sp, #8]
 80009fe:	6b1a      	ldr	r2, [r3, #48]	; 0x30
 8000a00:	f042 0202 	orr.w	r2, r2, #2
 8000a04:	631a      	str	r2, [r3, #48]	; 0x30
 8000a06:	6b1b      	ldr	r3, [r3, #48]	; 0x30
 8000a08:	f003 0302 	and.w	r3, r3, #2
 8000a0c:	9302      	str	r3, [sp, #8]
 8000a0e:	9b02      	ldr	r3, [sp, #8]
 8000a10:	2702      	movs	r7, #2
 8000a12:	2330      	movs	r3, #48	; 0x30
 8000a14:	2603      	movs	r6, #3
 8000a16:	2505      	movs	r5, #5
 8000a18:	a903      	add	r1, sp, #12
 8000a1a:	e9cd 3703 	strd	r3, r7, [sp, #12]
 8000a1e:	e9cd 6506 	strd	r6, r5, [sp, #24]
 8000a22:	f000 fc87 	bl	8001334 <HAL_GPIO_Init>
 8000a26:	2320      	movs	r3, #32
 8000a28:	4807      	ldr	r0, [pc, #28]	; (8000a48 <HAL_SPI_MspInit+0x94>)
 8000a2a:	9507      	str	r5, [sp, #28]
 8000a2c:	a903      	add	r1, sp, #12
 8000a2e:	e9cd 3703 	strd	r3, r7, [sp, #12]
 8000a32:	e9cd 4605 	strd	r4, r6, [sp, #20]
 8000a36:	f000 fc7d 	bl	8001334 <HAL_GPIO_Init>
 8000a3a:	b009      	add	sp, #36	; 0x24
 8000a3c:	bdf0      	pop	{r4, r5, r6, r7, pc}
 8000a3e:	bf00      	nop
 8000a40:	40013000 	.word	0x40013000
 8000a44:	40020000 	.word	0x40020000
 8000a48:	40020400 	.word	0x40020400

08000a4c <NMI_Handler>:
 8000a4c:	e7fe      	b.n	8000a4c <NMI_Handler>

08000a4e <HardFault_Handler>:
 8000a4e:	e7fe      	b.n	8000a4e <HardFault_Handler>

08000a50 <MemManage_Handler>:
 8000a50:	e7fe      	b.n	8000a50 <MemManage_Handler>

08000a52 <BusFault_Handler>:
 8000a52:	e7fe      	b.n	8000a52 <BusFault_Handler>

08000a54 <UsageFault_Handler>:
 8000a54:	e7fe      	b.n	8000a54 <UsageFault_Handler>

08000a56 <SVC_Handler>:
 8000a56:	4770      	bx	lr

08000a58 <DebugMon_Handler>:
 8000a58:	4770      	bx	lr

08000a5a <PendSV_Handler>:
 8000a5a:	4770      	bx	lr

08000a5c <SysTick_Handler>:
 8000a5c:	f000 b898 	b.w	8000b90 <HAL_IncTick>

08000a60 <OTG_FS_IRQHandler>:
 8000a60:	4801      	ldr	r0, [pc, #4]	; (8000a68 <OTG_FS_IRQHandler+0x8>)
 8000a62:	f000 bf2b 	b.w	80018bc <HAL_PCD_IRQHandler>
 8000a66:	bf00      	nop
 8000a68:	20001724 	.word	0x20001724

08000a6c <_sbrk>:
 8000a6c:	4a0b      	ldr	r2, [pc, #44]	; (8000a9c <_sbrk+0x30>)
 8000a6e:	6811      	ldr	r1, [r2, #0]
 8000a70:	b510      	push	{r4, lr}
 8000a72:	4603      	mov	r3, r0
 8000a74:	b909      	cbnz	r1, 8000a7a <_sbrk+0xe>
 8000a76:	490a      	ldr	r1, [pc, #40]	; (8000aa0 <_sbrk+0x34>)
 8000a78:	6011      	str	r1, [r2, #0]
 8000a7a:	6810      	ldr	r0, [r2, #0]
 8000a7c:	4909      	ldr	r1, [pc, #36]	; (8000aa4 <_sbrk+0x38>)
 8000a7e:	4c0a      	ldr	r4, [pc, #40]	; (8000aa8 <_sbrk+0x3c>)
 8000a80:	4403      	add	r3, r0
 8000a82:	1b09      	subs	r1, r1, r4
 8000a84:	428b      	cmp	r3, r1
 8000a86:	d906      	bls.n	8000a96 <_sbrk+0x2a>
 8000a88:	f003 fdb4 	bl	80045f4 <__errno>
 8000a8c:	230c      	movs	r3, #12
 8000a8e:	6003      	str	r3, [r0, #0]
 8000a90:	f04f 30ff 	mov.w	r0, #4294967295
 8000a94:	bd10      	pop	{r4, pc}
 8000a96:	6013      	str	r3, [r2, #0]
 8000a98:	e7fc      	b.n	8000a94 <_sbrk+0x28>
 8000a9a:	bf00      	nop
 8000a9c:	2000023c 	.word	0x2000023c
 8000aa0:	20001f98 	.word	0x20001f98
 8000aa4:	20040000 	.word	0x20040000
 8000aa8:	00000400 	.word	0x00000400

08000aac <SystemInit>:
 8000aac:	4a03      	ldr	r2, [pc, #12]	; (8000abc <SystemInit+0x10>)
 8000aae:	f8d2 3088 	ldr.w	r3, [r2, #136]	; 0x88
 8000ab2:	f443 0370 	orr.w	r3, r3, #15728640	; 0xf00000
 8000ab6:	f8c2 3088 	str.w	r3, [r2, #136]	; 0x88
 8000aba:	4770      	bx	lr
 8000abc:	e000ed00 	.word	0xe000ed00

08000ac0 <Reset_Handler>:
 8000ac0:	f8df d034 	ldr.w	sp, [pc, #52]	; 8000af8 <LoopFillZerobss+0x12>
 8000ac4:	480d      	ldr	r0, [pc, #52]	; (8000afc <LoopFillZerobss+0x16>)
 8000ac6:	490e      	ldr	r1, [pc, #56]	; (8000b00 <LoopFillZerobss+0x1a>)
 8000ac8:	4a0e      	ldr	r2, [pc, #56]	; (8000b04 <LoopFillZerobss+0x1e>)
 8000aca:	2300      	movs	r3, #0
 8000acc:	e002      	b.n	8000ad4 <LoopCopyDataInit>

08000ace <CopyDataInit>:
 8000ace:	58d4      	ldr	r4, [r2, r3]
 8000ad0:	50c4      	str	r4, [r0, r3]
 8000ad2:	3304      	adds	r3, #4

08000ad4 <LoopCopyDataInit>:
 8000ad4:	18c4      	adds	r4, r0, r3
 8000ad6:	428c      	cmp	r4, r1
 8000ad8:	d3f9      	bcc.n	8000ace <CopyDataInit>
 8000ada:	4a0b      	ldr	r2, [pc, #44]	; (8000b08 <LoopFillZerobss+0x22>)
 8000adc:	4c0b      	ldr	r4, [pc, #44]	; (8000b0c <LoopFillZerobss+0x26>)
 8000ade:	2300      	movs	r3, #0
 8000ae0:	e001      	b.n	8000ae6 <LoopFillZerobss>

08000ae2 <FillZerobss>:
 8000ae2:	6013      	str	r3, [r2, #0]
 8000ae4:	3204      	adds	r2, #4

08000ae6 <LoopFillZerobss>:
 8000ae6:	42a2      	cmp	r2, r4
 8000ae8:	d3fb      	bcc.n	8000ae2 <FillZerobss>
 8000aea:	f7ff ffdf 	bl	8000aac <SystemInit>
 8000aee:	f003 fd87 	bl	8004600 <__libc_init_array>
 8000af2:	f7ff fd5f 	bl	80005b4 <main>
 8000af6:	4770      	bx	lr
 8000af8:	20040000 	.word	0x20040000
 8000afc:	20000000 	.word	0x20000000
 8000b00:	20000158 	.word	0x20000158
 8000b04:	080046dc 	.word	0x080046dc
 8000b08:	20000158 	.word	0x20000158
 8000b0c:	20001f98 	.word	0x20001f98

08000b10 <ADC_IRQHandler>:
 8000b10:	e7fe      	b.n	8000b10 <ADC_IRQHandler>
	...

08000b14 <HAL_InitTick>:
 8000b14:	b538      	push	{r3, r4, r5, lr}
 8000b16:	4b0e      	ldr	r3, [pc, #56]	; (8000b50 <HAL_InitTick+0x3c>)
 8000b18:	781a      	ldrb	r2, [r3, #0]
 8000b1a:	f44f 737a 	mov.w	r3, #1000	; 0x3e8
 8000b1e:	fbb3 f3f2 	udiv	r3, r3, r2
 8000b22:	4a0c      	ldr	r2, [pc, #48]	; (8000b54 <HAL_InitTick+0x40>)
 8000b24:	4605      	mov	r5, r0
 8000b26:	6810      	ldr	r0, [r2, #0]
 8000b28:	fbb0 f0f3 	udiv	r0, r0, r3
 8000b2c:	f000 fbee 	bl	800130c <HAL_SYSTICK_Config>
 8000b30:	4604      	mov	r4, r0
 8000b32:	b958      	cbnz	r0, 8000b4c <HAL_InitTick+0x38>
 8000b34:	2d0f      	cmp	r5, #15
 8000b36:	d809      	bhi.n	8000b4c <HAL_InitTick+0x38>
 8000b38:	4602      	mov	r2, r0
 8000b3a:	4629      	mov	r1, r5
 8000b3c:	f04f 30ff 	mov.w	r0, #4294967295
 8000b40:	f000 fba4 	bl	800128c <HAL_NVIC_SetPriority>
 8000b44:	4b04      	ldr	r3, [pc, #16]	; (8000b58 <HAL_InitTick+0x44>)
 8000b46:	4620      	mov	r0, r4
 8000b48:	601d      	str	r5, [r3, #0]
 8000b4a:	bd38      	pop	{r3, r4, r5, pc}
 8000b4c:	2001      	movs	r0, #1
 8000b4e:	e7fc      	b.n	8000b4a <HAL_InitTick+0x36>
 8000b50:	20000004 	.word	0x20000004
 8000b54:	20000000 	.word	0x20000000
 8000b58:	20000008 	.word	0x20000008

08000b5c <HAL_Init>:
 8000b5c:	b508      	push	{r3, lr}
 8000b5e:	4b0b      	ldr	r3, [pc, #44]	; (8000b8c <HAL_Init+0x30>)
 8000b60:	681a      	ldr	r2, [r3, #0]
 8000b62:	f442 7200 	orr.w	r2, r2, #512	; 0x200
 8000b66:	601a      	str	r2, [r3, #0]
 8000b68:	681a      	ldr	r2, [r3, #0]
 8000b6a:	f442 6280 	orr.w	r2, r2, #1024	; 0x400
 8000b6e:	601a      	str	r2, [r3, #0]
 8000b70:	681a      	ldr	r2, [r3, #0]
 8000b72:	f442 7280 	orr.w	r2, r2, #256	; 0x100
 8000b76:	601a      	str	r2, [r3, #0]
 8000b78:	2003      	movs	r0, #3
 8000b7a:	f000 fb75 	bl	8001268 <HAL_NVIC_SetPriorityGrouping>
 8000b7e:	200f      	movs	r0, #15
 8000b80:	f7ff ffc8 	bl	8000b14 <HAL_InitTick>
 8000b84:	f7ff fe6a 	bl	800085c <HAL_MspInit>
 8000b88:	2000      	movs	r0, #0
 8000b8a:	bd08      	pop	{r3, pc}
 8000b8c:	40023c00 	.word	0x40023c00

08000b90 <HAL_IncTick>:
 8000b90:	4a03      	ldr	r2, [pc, #12]	; (8000ba0 <HAL_IncTick+0x10>)
 8000b92:	4b04      	ldr	r3, [pc, #16]	; (8000ba4 <HAL_IncTick+0x14>)
 8000b94:	6811      	ldr	r1, [r2, #0]
 8000b96:	781b      	ldrb	r3, [r3, #0]
 8000b98:	440b      	add	r3, r1
 8000b9a:	6013      	str	r3, [r2, #0]
 8000b9c:	4770      	bx	lr
 8000b9e:	bf00      	nop
 8000ba0:	20000240 	.word	0x20000240
 8000ba4:	20000004 	.word	0x20000004

08000ba8 <HAL_GetTick>:
 8000ba8:	4b01      	ldr	r3, [pc, #4]	; (8000bb0 <HAL_GetTick+0x8>)
 8000baa:	6818      	ldr	r0, [r3, #0]
 8000bac:	4770      	bx	lr
 8000bae:	bf00      	nop
 8000bb0:	20000240 	.word	0x20000240

08000bb4 <HAL_Delay>:
 8000bb4:	b538      	push	{r3, r4, r5, lr}
 8000bb6:	4604      	mov	r4, r0
 8000bb8:	f7ff fff6 	bl	8000ba8 <HAL_GetTick>
 8000bbc:	1c63      	adds	r3, r4, #1
 8000bbe:	bf1c      	itt	ne
 8000bc0:	4b05      	ldrne	r3, [pc, #20]	; (8000bd8 <HAL_Delay+0x24>)
 8000bc2:	781b      	ldrbne	r3, [r3, #0]
 8000bc4:	4605      	mov	r5, r0
 8000bc6:	bf18      	it	ne
 8000bc8:	18e4      	addne	r4, r4, r3
 8000bca:	f7ff ffed 	bl	8000ba8 <HAL_GetTick>
 8000bce:	1b43      	subs	r3, r0, r5
 8000bd0:	42a3      	cmp	r3, r4
 8000bd2:	d3fa      	bcc.n	8000bca <HAL_Delay+0x16>
 8000bd4:	bd38      	pop	{r3, r4, r5, pc}
 8000bd6:	bf00      	nop
 8000bd8:	20000004 	.word	0x20000004

08000bdc <HAL_ADC_Init>:
 8000bdc:	b538      	push	{r3, r4, r5, lr}
 8000bde:	4604      	mov	r4, r0
 8000be0:	2800      	cmp	r0, #0
 8000be2:	f000 809b 	beq.w	8000d1c <HAL_ADC_Init+0x140>
 8000be6:	6c05      	ldr	r5, [r0, #64]	; 0x40
 8000be8:	b925      	cbnz	r5, 8000bf4 <HAL_ADC_Init+0x18>
 8000bea:	f7ff fe53 	bl	8000894 <HAL_ADC_MspInit>
 8000bee:	6465      	str	r5, [r4, #68]	; 0x44
 8000bf0:	f884 503c 	strb.w	r5, [r4, #60]	; 0x3c
 8000bf4:	6c23      	ldr	r3, [r4, #64]	; 0x40
 8000bf6:	06db      	lsls	r3, r3, #27
 8000bf8:	f100 808e 	bmi.w	8000d18 <HAL_ADC_Init+0x13c>
 8000bfc:	6c23      	ldr	r3, [r4, #64]	; 0x40
 8000bfe:	f423 5388 	bic.w	r3, r3, #4352	; 0x1100
 8000c02:	f023 0302 	bic.w	r3, r3, #2
 8000c06:	f043 0302 	orr.w	r3, r3, #2
 8000c0a:	6423      	str	r3, [r4, #64]	; 0x40
 8000c0c:	4b44      	ldr	r3, [pc, #272]	; (8000d20 <HAL_ADC_Init+0x144>)
 8000c0e:	685a      	ldr	r2, [r3, #4]
 8000c10:	f422 3240 	bic.w	r2, r2, #196608	; 0x30000
 8000c14:	605a      	str	r2, [r3, #4]
 8000c16:	685a      	ldr	r2, [r3, #4]
 8000c18:	6861      	ldr	r1, [r4, #4]
 8000c1a:	430a      	orrs	r2, r1
 8000c1c:	605a      	str	r2, [r3, #4]
 8000c1e:	6823      	ldr	r3, [r4, #0]
 8000c20:	6921      	ldr	r1, [r4, #16]
 8000c22:	685a      	ldr	r2, [r3, #4]
 8000c24:	f422 7280 	bic.w	r2, r2, #256	; 0x100
 8000c28:	605a      	str	r2, [r3, #4]
 8000c2a:	685a      	ldr	r2, [r3, #4]
 8000c2c:	ea42 2201 	orr.w	r2, r2, r1, lsl #8
 8000c30:	605a      	str	r2, [r3, #4]
 8000c32:	685a      	ldr	r2, [r3, #4]
 8000c34:	68a1      	ldr	r1, [r4, #8]
 8000c36:	f022 7240 	bic.w	r2, r2, #50331648	; 0x3000000
 8000c3a:	605a      	str	r2, [r3, #4]
 8000c3c:	685a      	ldr	r2, [r3, #4]
 8000c3e:	430a      	orrs	r2, r1
 8000c40:	605a      	str	r2, [r3, #4]
 8000c42:	689a      	ldr	r2, [r3, #8]
 8000c44:	68e1      	ldr	r1, [r4, #12]
 8000c46:	f422 6200 	bic.w	r2, r2, #2048	; 0x800
 8000c4a:	609a      	str	r2, [r3, #8]
 8000c4c:	689a      	ldr	r2, [r3, #8]
 8000c4e:	430a      	orrs	r2, r1
 8000c50:	609a      	str	r2, [r3, #8]
 8000c52:	4934      	ldr	r1, [pc, #208]	; (8000d24 <HAL_ADC_Init+0x148>)
 8000c54:	6aa2      	ldr	r2, [r4, #40]	; 0x28
 8000c56:	428a      	cmp	r2, r1
 8000c58:	d052      	beq.n	8000d00 <HAL_ADC_Init+0x124>
 8000c5a:	6899      	ldr	r1, [r3, #8]
 8000c5c:	f021 6170 	bic.w	r1, r1, #251658240	; 0xf000000
 8000c60:	6099      	str	r1, [r3, #8]
 8000c62:	6899      	ldr	r1, [r3, #8]
 8000c64:	430a      	orrs	r2, r1
 8000c66:	609a      	str	r2, [r3, #8]
 8000c68:	689a      	ldr	r2, [r3, #8]
 8000c6a:	6ae1      	ldr	r1, [r4, #44]	; 0x2c
 8000c6c:	f022 5240 	bic.w	r2, r2, #805306368	; 0x30000000
 8000c70:	609a      	str	r2, [r3, #8]
 8000c72:	689a      	ldr	r2, [r3, #8]
 8000c74:	430a      	orrs	r2, r1
 8000c76:	609a      	str	r2, [r3, #8]
 8000c78:	689a      	ldr	r2, [r3, #8]
 8000c7a:	f022 0202 	bic.w	r2, r2, #2
 8000c7e:	609a      	str	r2, [r3, #8]
 8000c80:	689a      	ldr	r2, [r3, #8]
 8000c82:	7e21      	ldrb	r1, [r4, #24]
 8000c84:	ea42 0241 	orr.w	r2, r2, r1, lsl #1
 8000c88:	609a      	str	r2, [r3, #8]
 8000c8a:	f894 2020 	ldrb.w	r2, [r4, #32]
 8000c8e:	2a00      	cmp	r2, #0
 8000c90:	d03e      	beq.n	8000d10 <HAL_ADC_Init+0x134>
 8000c92:	685a      	ldr	r2, [r3, #4]
 8000c94:	6a61      	ldr	r1, [r4, #36]	; 0x24
 8000c96:	f442 6200 	orr.w	r2, r2, #2048	; 0x800
 8000c9a:	605a      	str	r2, [r3, #4]
 8000c9c:	685a      	ldr	r2, [r3, #4]
 8000c9e:	f422 4260 	bic.w	r2, r2, #57344	; 0xe000
 8000ca2:	605a      	str	r2, [r3, #4]
 8000ca4:	685a      	ldr	r2, [r3, #4]
 8000ca6:	3901      	subs	r1, #1
 8000ca8:	ea42 3241 	orr.w	r2, r2, r1, lsl #13
 8000cac:	605a      	str	r2, [r3, #4]
 8000cae:	6ada      	ldr	r2, [r3, #44]	; 0x2c
 8000cb0:	69e1      	ldr	r1, [r4, #28]
 8000cb2:	f422 0270 	bic.w	r2, r2, #15728640	; 0xf00000
 8000cb6:	62da      	str	r2, [r3, #44]	; 0x2c
 8000cb8:	6ada      	ldr	r2, [r3, #44]	; 0x2c
 8000cba:	3901      	subs	r1, #1
 8000cbc:	ea42 5201 	orr.w	r2, r2, r1, lsl #20
 8000cc0:	62da      	str	r2, [r3, #44]	; 0x2c
 8000cc2:	689a      	ldr	r2, [r3, #8]
 8000cc4:	f422 7200 	bic.w	r2, r2, #512	; 0x200
 8000cc8:	609a      	str	r2, [r3, #8]
 8000cca:	689a      	ldr	r2, [r3, #8]
 8000ccc:	f894 1030 	ldrb.w	r1, [r4, #48]	; 0x30
 8000cd0:	ea42 2241 	orr.w	r2, r2, r1, lsl #9
 8000cd4:	609a      	str	r2, [r3, #8]
 8000cd6:	689a      	ldr	r2, [r3, #8]
 8000cd8:	6961      	ldr	r1, [r4, #20]
 8000cda:	f422 6280 	bic.w	r2, r2, #1024	; 0x400
 8000cde:	609a      	str	r2, [r3, #8]
 8000ce0:	689a      	ldr	r2, [r3, #8]
 8000ce2:	2000      	movs	r0, #0
 8000ce4:	ea42 2281 	orr.w	r2, r2, r1, lsl #10
 8000ce8:	609a      	str	r2, [r3, #8]
 8000cea:	6460      	str	r0, [r4, #68]	; 0x44
 8000cec:	6c23      	ldr	r3, [r4, #64]	; 0x40
 8000cee:	f023 0303 	bic.w	r3, r3, #3
 8000cf2:	f043 0301 	orr.w	r3, r3, #1
 8000cf6:	6423      	str	r3, [r4, #64]	; 0x40
 8000cf8:	2300      	movs	r3, #0
 8000cfa:	f884 303c 	strb.w	r3, [r4, #60]	; 0x3c
 8000cfe:	bd38      	pop	{r3, r4, r5, pc}
 8000d00:	689a      	ldr	r2, [r3, #8]
 8000d02:	f022 6270 	bic.w	r2, r2, #251658240	; 0xf000000
 8000d06:	609a      	str	r2, [r3, #8]
 8000d08:	689a      	ldr	r2, [r3, #8]
 8000d0a:	f022 5240 	bic.w	r2, r2, #805306368	; 0x30000000
 8000d0e:	e7b2      	b.n	8000c76 <HAL_ADC_Init+0x9a>
 8000d10:	685a      	ldr	r2, [r3, #4]
 8000d12:	f422 6200 	bic.w	r2, r2, #2048	; 0x800
 8000d16:	e7c9      	b.n	8000cac <HAL_ADC_Init+0xd0>
 8000d18:	2001      	movs	r0, #1
 8000d1a:	e7ed      	b.n	8000cf8 <HAL_ADC_Init+0x11c>
 8000d1c:	2001      	movs	r0, #1
 8000d1e:	e7ee      	b.n	8000cfe <HAL_ADC_Init+0x122>
 8000d20:	40012300 	.word	0x40012300
 8000d24:	0f000001 	.word	0x0f000001

08000d28 <HAL_ADC_Start>:
 8000d28:	b082      	sub	sp, #8
 8000d2a:	2300      	movs	r3, #0
 8000d2c:	9301      	str	r3, [sp, #4]
 8000d2e:	f890 303c 	ldrb.w	r3, [r0, #60]	; 0x3c
 8000d32:	2b01      	cmp	r3, #1
 8000d34:	4602      	mov	r2, r0
 8000d36:	d060      	beq.n	8000dfa <HAL_ADC_Start+0xd2>
 8000d38:	6801      	ldr	r1, [r0, #0]
 8000d3a:	2301      	movs	r3, #1
 8000d3c:	f880 303c 	strb.w	r3, [r0, #60]	; 0x3c
 8000d40:	688b      	ldr	r3, [r1, #8]
 8000d42:	07d8      	lsls	r0, r3, #31
 8000d44:	d50c      	bpl.n	8000d60 <HAL_ADC_Start+0x38>
 8000d46:	688b      	ldr	r3, [r1, #8]
 8000d48:	f013 0301 	ands.w	r3, r3, #1
 8000d4c:	d11a      	bne.n	8000d84 <HAL_ADC_Start+0x5c>
 8000d4e:	6c11      	ldr	r1, [r2, #64]	; 0x40
 8000d50:	f041 0110 	orr.w	r1, r1, #16
 8000d54:	6411      	str	r1, [r2, #64]	; 0x40
 8000d56:	6c51      	ldr	r1, [r2, #68]	; 0x44
 8000d58:	f041 0101 	orr.w	r1, r1, #1
 8000d5c:	6451      	str	r1, [r2, #68]	; 0x44
 8000d5e:	e04a      	b.n	8000df6 <HAL_ADC_Start+0xce>
 8000d60:	688b      	ldr	r3, [r1, #8]
 8000d62:	4827      	ldr	r0, [pc, #156]	; (8000e00 <HAL_ADC_Start+0xd8>)
 8000d64:	f043 0301 	orr.w	r3, r3, #1
 8000d68:	608b      	str	r3, [r1, #8]
 8000d6a:	4b26      	ldr	r3, [pc, #152]	; (8000e04 <HAL_ADC_Start+0xdc>)
 8000d6c:	681b      	ldr	r3, [r3, #0]
 8000d6e:	fbb3 f3f0 	udiv	r3, r3, r0
 8000d72:	eb03 0343 	add.w	r3, r3, r3, lsl #1
 8000d76:	9301      	str	r3, [sp, #4]
 8000d78:	9b01      	ldr	r3, [sp, #4]
 8000d7a:	2b00      	cmp	r3, #0
 8000d7c:	d0e3      	beq.n	8000d46 <HAL_ADC_Start+0x1e>
 8000d7e:	9b01      	ldr	r3, [sp, #4]
 8000d80:	3b01      	subs	r3, #1
 8000d82:	e7f8      	b.n	8000d76 <HAL_ADC_Start+0x4e>
 8000d84:	6c13      	ldr	r3, [r2, #64]	; 0x40
 8000d86:	f423 63e0 	bic.w	r3, r3, #1792	; 0x700
 8000d8a:	f023 0301 	bic.w	r3, r3, #1
 8000d8e:	f443 7380 	orr.w	r3, r3, #256	; 0x100
 8000d92:	6413      	str	r3, [r2, #64]	; 0x40
 8000d94:	684b      	ldr	r3, [r1, #4]
 8000d96:	055b      	lsls	r3, r3, #21
 8000d98:	bf41      	itttt	mi
 8000d9a:	6c13      	ldrmi	r3, [r2, #64]	; 0x40
 8000d9c:	f423 5340 	bicmi.w	r3, r3, #12288	; 0x3000
 8000da0:	f443 5380 	orrmi.w	r3, r3, #4096	; 0x1000
 8000da4:	6413      	strmi	r3, [r2, #64]	; 0x40
 8000da6:	6c13      	ldr	r3, [r2, #64]	; 0x40
 8000da8:	f413 5380 	ands.w	r3, r3, #4096	; 0x1000
 8000dac:	bf1c      	itt	ne
 8000dae:	6c53      	ldrne	r3, [r2, #68]	; 0x44
 8000db0:	f023 0306 	bicne.w	r3, r3, #6
 8000db4:	6453      	str	r3, [r2, #68]	; 0x44
 8000db6:	2000      	movs	r0, #0
 8000db8:	f06f 0322 	mvn.w	r3, #34	; 0x22
 8000dbc:	f882 003c 	strb.w	r0, [r2, #60]	; 0x3c
 8000dc0:	600b      	str	r3, [r1, #0]
 8000dc2:	4b11      	ldr	r3, [pc, #68]	; (8000e08 <HAL_ADC_Start+0xe0>)
 8000dc4:	685b      	ldr	r3, [r3, #4]
 8000dc6:	f013 031f 	ands.w	r3, r3, #31
 8000dca:	d109      	bne.n	8000de0 <HAL_ADC_Start+0xb8>
 8000dcc:	6888      	ldr	r0, [r1, #8]
 8000dce:	f010 5040 	ands.w	r0, r0, #805306368	; 0x30000000
 8000dd2:	d110      	bne.n	8000df6 <HAL_ADC_Start+0xce>
 8000dd4:	688b      	ldr	r3, [r1, #8]
 8000dd6:	f043 4380 	orr.w	r3, r3, #1073741824	; 0x40000000
 8000dda:	608b      	str	r3, [r1, #8]
 8000ddc:	b002      	add	sp, #8
 8000dde:	4770      	bx	lr
 8000de0:	4b0a      	ldr	r3, [pc, #40]	; (8000e0c <HAL_ADC_Start+0xe4>)
 8000de2:	4299      	cmp	r1, r3
 8000de4:	d1fa      	bne.n	8000ddc <HAL_ADC_Start+0xb4>
 8000de6:	688b      	ldr	r3, [r1, #8]
 8000de8:	f013 5340 	ands.w	r3, r3, #805306368	; 0x30000000
 8000dec:	d1f6      	bne.n	8000ddc <HAL_ADC_Start+0xb4>
 8000dee:	688a      	ldr	r2, [r1, #8]
 8000df0:	f042 4280 	orr.w	r2, r2, #1073741824	; 0x40000000
 8000df4:	608a      	str	r2, [r1, #8]
 8000df6:	4618      	mov	r0, r3
 8000df8:	e7f0      	b.n	8000ddc <HAL_ADC_Start+0xb4>
 8000dfa:	2002      	movs	r0, #2
 8000dfc:	e7ee      	b.n	8000ddc <HAL_ADC_Start+0xb4>
 8000dfe:	bf00      	nop
 8000e00:	000f4240 	.word	0x000f4240
 8000e04:	20000000 	.word	0x20000000
 8000e08:	40012300 	.word	0x40012300
 8000e0c:	40012000 	.word	0x40012000

08000e10 <HAL_ADC_Stop>:
 8000e10:	f890 303c 	ldrb.w	r3, [r0, #60]	; 0x3c
 8000e14:	2b01      	cmp	r3, #1
 8000e16:	d014      	beq.n	8000e42 <HAL_ADC_Stop+0x32>
 8000e18:	6803      	ldr	r3, [r0, #0]
 8000e1a:	689a      	ldr	r2, [r3, #8]
 8000e1c:	f022 0201 	bic.w	r2, r2, #1
 8000e20:	609a      	str	r2, [r3, #8]
 8000e22:	689b      	ldr	r3, [r3, #8]
 8000e24:	07db      	lsls	r3, r3, #31
 8000e26:	d407      	bmi.n	8000e38 <HAL_ADC_Stop+0x28>
 8000e28:	6c03      	ldr	r3, [r0, #64]	; 0x40
 8000e2a:	f423 5388 	bic.w	r3, r3, #4352	; 0x1100
 8000e2e:	f023 0301 	bic.w	r3, r3, #1
 8000e32:	f043 0301 	orr.w	r3, r3, #1
 8000e36:	6403      	str	r3, [r0, #64]	; 0x40
 8000e38:	2300      	movs	r3, #0
 8000e3a:	f880 303c 	strb.w	r3, [r0, #60]	; 0x3c
 8000e3e:	4618      	mov	r0, r3
 8000e40:	4770      	bx	lr
 8000e42:	2002      	movs	r0, #2
 8000e44:	4770      	bx	lr

08000e46 <HAL_ADC_PollForConversion>:
 8000e46:	6803      	ldr	r3, [r0, #0]
 8000e48:	689a      	ldr	r2, [r3, #8]
 8000e4a:	0552      	lsls	r2, r2, #21
 8000e4c:	b570      	push	{r4, r5, r6, lr}
 8000e4e:	4604      	mov	r4, r0
 8000e50:	460d      	mov	r5, r1
 8000e52:	d50b      	bpl.n	8000e6c <HAL_ADC_PollForConversion+0x26>
 8000e54:	689b      	ldr	r3, [r3, #8]
 8000e56:	05de      	lsls	r6, r3, #23
 8000e58:	d508      	bpl.n	8000e6c <HAL_ADC_PollForConversion+0x26>
 8000e5a:	6c03      	ldr	r3, [r0, #64]	; 0x40
 8000e5c:	f043 0320 	orr.w	r3, r3, #32
 8000e60:	6403      	str	r3, [r0, #64]	; 0x40
 8000e62:	2300      	movs	r3, #0
 8000e64:	f880 303c 	strb.w	r3, [r0, #60]	; 0x3c
 8000e68:	2001      	movs	r0, #1
 8000e6a:	bd70      	pop	{r4, r5, r6, pc}
 8000e6c:	f7ff fe9c 	bl	8000ba8 <HAL_GetTick>
 8000e70:	4606      	mov	r6, r0
 8000e72:	6823      	ldr	r3, [r4, #0]
 8000e74:	681a      	ldr	r2, [r3, #0]
 8000e76:	0791      	lsls	r1, r2, #30
 8000e78:	d50c      	bpl.n	8000e94 <HAL_ADC_PollForConversion+0x4e>
 8000e7a:	f06f 0212 	mvn.w	r2, #18
 8000e7e:	601a      	str	r2, [r3, #0]
 8000e80:	6c22      	ldr	r2, [r4, #64]	; 0x40
 8000e82:	f442 7200 	orr.w	r2, r2, #512	; 0x200
 8000e86:	6422      	str	r2, [r4, #64]	; 0x40
 8000e88:	689a      	ldr	r2, [r3, #8]
 8000e8a:	f012 5f40 	tst.w	r2, #805306368	; 0x30000000
 8000e8e:	d017      	beq.n	8000ec0 <HAL_ADC_PollForConversion+0x7a>
 8000e90:	2000      	movs	r0, #0
 8000e92:	e7ea      	b.n	8000e6a <HAL_ADC_PollForConversion+0x24>
 8000e94:	1c68      	adds	r0, r5, #1
 8000e96:	d0ed      	beq.n	8000e74 <HAL_ADC_PollForConversion+0x2e>
 8000e98:	b965      	cbnz	r5, 8000eb4 <HAL_ADC_PollForConversion+0x6e>
 8000e9a:	6823      	ldr	r3, [r4, #0]
 8000e9c:	681b      	ldr	r3, [r3, #0]
 8000e9e:	f013 0302 	ands.w	r3, r3, #2
 8000ea2:	d1e6      	bne.n	8000e72 <HAL_ADC_PollForConversion+0x2c>
 8000ea4:	6c22      	ldr	r2, [r4, #64]	; 0x40
 8000ea6:	f884 303c 	strb.w	r3, [r4, #60]	; 0x3c
 8000eaa:	f042 0204 	orr.w	r2, r2, #4
 8000eae:	6422      	str	r2, [r4, #64]	; 0x40
 8000eb0:	2003      	movs	r0, #3
 8000eb2:	e7da      	b.n	8000e6a <HAL_ADC_PollForConversion+0x24>
 8000eb4:	f7ff fe78 	bl	8000ba8 <HAL_GetTick>
 8000eb8:	1b80      	subs	r0, r0, r6
 8000eba:	42a8      	cmp	r0, r5
 8000ebc:	d8ed      	bhi.n	8000e9a <HAL_ADC_PollForConversion+0x54>
 8000ebe:	e7d8      	b.n	8000e72 <HAL_ADC_PollForConversion+0x2c>
 8000ec0:	7e20      	ldrb	r0, [r4, #24]
 8000ec2:	2800      	cmp	r0, #0
 8000ec4:	d1e4      	bne.n	8000e90 <HAL_ADC_PollForConversion+0x4a>
 8000ec6:	6ada      	ldr	r2, [r3, #44]	; 0x2c
 8000ec8:	f412 0f70 	tst.w	r2, #15728640	; 0xf00000
 8000ecc:	d002      	beq.n	8000ed4 <HAL_ADC_PollForConversion+0x8e>
 8000ece:	689b      	ldr	r3, [r3, #8]
 8000ed0:	055a      	lsls	r2, r3, #21
 8000ed2:	d4dd      	bmi.n	8000e90 <HAL_ADC_PollForConversion+0x4a>
 8000ed4:	6c23      	ldr	r3, [r4, #64]	; 0x40
 8000ed6:	f423 7380 	bic.w	r3, r3, #256	; 0x100
 8000eda:	6423      	str	r3, [r4, #64]	; 0x40
 8000edc:	6c23      	ldr	r3, [r4, #64]	; 0x40
 8000ede:	04db      	lsls	r3, r3, #19
 8000ee0:	d4d6      	bmi.n	8000e90 <HAL_ADC_PollForConversion+0x4a>
 8000ee2:	6c23      	ldr	r3, [r4, #64]	; 0x40
 8000ee4:	f043 0301 	orr.w	r3, r3, #1
 8000ee8:	6423      	str	r3, [r4, #64]	; 0x40
 8000eea:	e7be      	b.n	8000e6a <HAL_ADC_PollForConversion+0x24>

08000eec <HAL_ADC_GetValue>:
 8000eec:	6803      	ldr	r3, [r0, #0]
 8000eee:	6cd8      	ldr	r0, [r3, #76]	; 0x4c
 8000ef0:	4770      	bx	lr
	...

08000ef4 <HAL_ADC_ConfigChannel>:
 8000ef4:	b5f7      	push	{r0, r1, r2, r4, r5, r6, r7, lr}
 8000ef6:	2300      	movs	r3, #0
 8000ef8:	9301      	str	r3, [sp, #4]
 8000efa:	f890 303c 	ldrb.w	r3, [r0, #60]	; 0x3c
 8000efe:	2b01      	cmp	r3, #1
 8000f00:	d064      	beq.n	8000fcc <HAL_ADC_ConfigChannel+0xd8>
 8000f02:	2301      	movs	r3, #1
 8000f04:	f880 303c 	strb.w	r3, [r0, #60]	; 0x3c
 8000f08:	680d      	ldr	r5, [r1, #0]
 8000f0a:	6803      	ldr	r3, [r0, #0]
 8000f0c:	688e      	ldr	r6, [r1, #8]
 8000f0e:	2d09      	cmp	r5, #9
 8000f10:	b2ac      	uxth	r4, r5
 8000f12:	d931      	bls.n	8000f78 <HAL_ADC_ConfigChannel+0x84>
 8000f14:	eb04 0244 	add.w	r2, r4, r4, lsl #1
 8000f18:	68df      	ldr	r7, [r3, #12]
 8000f1a:	3a1e      	subs	r2, #30
 8000f1c:	f04f 0c07 	mov.w	ip, #7
 8000f20:	fa0c fc02 	lsl.w	ip, ip, r2
 8000f24:	ea27 070c 	bic.w	r7, r7, ip
 8000f28:	60df      	str	r7, [r3, #12]
 8000f2a:	68df      	ldr	r7, [r3, #12]
 8000f2c:	fa06 f202 	lsl.w	r2, r6, r2
 8000f30:	433a      	orrs	r2, r7
 8000f32:	60da      	str	r2, [r3, #12]
 8000f34:	6849      	ldr	r1, [r1, #4]
 8000f36:	2906      	cmp	r1, #6
 8000f38:	eb01 0281 	add.w	r2, r1, r1, lsl #2
 8000f3c:	d82b      	bhi.n	8000f96 <HAL_ADC_ConfigChannel+0xa2>
 8000f3e:	6b59      	ldr	r1, [r3, #52]	; 0x34
 8000f40:	3a05      	subs	r2, #5
 8000f42:	261f      	movs	r6, #31
 8000f44:	4096      	lsls	r6, r2
 8000f46:	ea21 0106 	bic.w	r1, r1, r6
 8000f4a:	6359      	str	r1, [r3, #52]	; 0x34
 8000f4c:	6b59      	ldr	r1, [r3, #52]	; 0x34
 8000f4e:	fa04 f202 	lsl.w	r2, r4, r2
 8000f52:	430a      	orrs	r2, r1
 8000f54:	635a      	str	r2, [r3, #52]	; 0x34
 8000f56:	4a2b      	ldr	r2, [pc, #172]	; (8001004 <HAL_ADC_ConfigChannel+0x110>)
 8000f58:	4293      	cmp	r3, r2
 8000f5a:	d107      	bne.n	8000f6c <HAL_ADC_ConfigChannel+0x78>
 8000f5c:	2d12      	cmp	r5, #18
 8000f5e:	d137      	bne.n	8000fd0 <HAL_ADC_ConfigChannel+0xdc>
 8000f60:	f8d2 3304 	ldr.w	r3, [r2, #772]	; 0x304
 8000f64:	f443 0380 	orr.w	r3, r3, #4194304	; 0x400000
 8000f68:	f8c2 3304 	str.w	r3, [r2, #772]	; 0x304
 8000f6c:	2300      	movs	r3, #0
 8000f6e:	f880 303c 	strb.w	r3, [r0, #60]	; 0x3c
 8000f72:	4618      	mov	r0, r3
 8000f74:	b003      	add	sp, #12
 8000f76:	bdf0      	pop	{r4, r5, r6, r7, pc}
 8000f78:	691a      	ldr	r2, [r3, #16]
 8000f7a:	eb05 0c45 	add.w	ip, r5, r5, lsl #1
 8000f7e:	2707      	movs	r7, #7
 8000f80:	fa07 f70c 	lsl.w	r7, r7, ip
 8000f84:	ea22 0207 	bic.w	r2, r2, r7
 8000f88:	611a      	str	r2, [r3, #16]
 8000f8a:	691a      	ldr	r2, [r3, #16]
 8000f8c:	fa06 f60c 	lsl.w	r6, r6, ip
 8000f90:	4316      	orrs	r6, r2
 8000f92:	611e      	str	r6, [r3, #16]
 8000f94:	e7ce      	b.n	8000f34 <HAL_ADC_ConfigChannel+0x40>
 8000f96:	290c      	cmp	r1, #12
 8000f98:	f04f 011f 	mov.w	r1, #31
 8000f9c:	d80b      	bhi.n	8000fb6 <HAL_ADC_ConfigChannel+0xc2>
 8000f9e:	6b1e      	ldr	r6, [r3, #48]	; 0x30
 8000fa0:	3a23      	subs	r2, #35	; 0x23
 8000fa2:	4091      	lsls	r1, r2
 8000fa4:	ea26 0101 	bic.w	r1, r6, r1
 8000fa8:	6319      	str	r1, [r3, #48]	; 0x30
 8000faa:	6b19      	ldr	r1, [r3, #48]	; 0x30
 8000fac:	fa04 f202 	lsl.w	r2, r4, r2
 8000fb0:	430a      	orrs	r2, r1
 8000fb2:	631a      	str	r2, [r3, #48]	; 0x30
 8000fb4:	e7cf      	b.n	8000f56 <HAL_ADC_ConfigChannel+0x62>
 8000fb6:	6ade      	ldr	r6, [r3, #44]	; 0x2c
 8000fb8:	3a41      	subs	r2, #65	; 0x41
 8000fba:	4091      	lsls	r1, r2
 8000fbc:	ea26 0101 	bic.w	r1, r6, r1
 8000fc0:	62d9      	str	r1, [r3, #44]	; 0x2c
 8000fc2:	6ad9      	ldr	r1, [r3, #44]	; 0x2c
 8000fc4:	4094      	lsls	r4, r2
 8000fc6:	430c      	orrs	r4, r1
 8000fc8:	62dc      	str	r4, [r3, #44]	; 0x2c
 8000fca:	e7c4      	b.n	8000f56 <HAL_ADC_ConfigChannel+0x62>
 8000fcc:	2002      	movs	r0, #2
 8000fce:	e7d1      	b.n	8000f74 <HAL_ADC_ConfigChannel+0x80>
 8000fd0:	f1a5 0310 	sub.w	r3, r5, #16
 8000fd4:	2b01      	cmp	r3, #1
 8000fd6:	d8c9      	bhi.n	8000f6c <HAL_ADC_ConfigChannel+0x78>
 8000fd8:	4a0b      	ldr	r2, [pc, #44]	; (8001008 <HAL_ADC_ConfigChannel+0x114>)
 8000fda:	6853      	ldr	r3, [r2, #4]
 8000fdc:	2d10      	cmp	r5, #16
 8000fde:	f443 0300 	orr.w	r3, r3, #8388608	; 0x800000
 8000fe2:	6053      	str	r3, [r2, #4]
 8000fe4:	d1c2      	bne.n	8000f6c <HAL_ADC_ConfigChannel+0x78>
 8000fe6:	4b09      	ldr	r3, [pc, #36]	; (800100c <HAL_ADC_ConfigChannel+0x118>)
 8000fe8:	4a09      	ldr	r2, [pc, #36]	; (8001010 <HAL_ADC_ConfigChannel+0x11c>)
 8000fea:	681b      	ldr	r3, [r3, #0]
 8000fec:	fbb3 f3f2 	udiv	r3, r3, r2
 8000ff0:	220a      	movs	r2, #10
 8000ff2:	4353      	muls	r3, r2
 8000ff4:	9301      	str	r3, [sp, #4]
 8000ff6:	9b01      	ldr	r3, [sp, #4]
 8000ff8:	2b00      	cmp	r3, #0
 8000ffa:	d0b7      	beq.n	8000f6c <HAL_ADC_ConfigChannel+0x78>
 8000ffc:	9b01      	ldr	r3, [sp, #4]
 8000ffe:	3b01      	subs	r3, #1
 8001000:	e7f8      	b.n	8000ff4 <HAL_ADC_ConfigChannel+0x100>
 8001002:	bf00      	nop
 8001004:	40012000 	.word	0x40012000
 8001008:	40012300 	.word	0x40012300
 800100c:	20000000 	.word	0x20000000
 8001010:	000f4240 	.word	0x000f4240

08001014 <HAL_CAN_Init>:
 8001014:	b538      	push	{r3, r4, r5, lr}
 8001016:	4604      	mov	r4, r0
 8001018:	2800      	cmp	r0, #0
 800101a:	d06e      	beq.n	80010fa <HAL_CAN_Init+0xe6>
 800101c:	f890 3020 	ldrb.w	r3, [r0, #32]
 8001020:	b90b      	cbnz	r3, 8001026 <HAL_CAN_Init+0x12>
 8001022:	f7ff fc91 	bl	8000948 <HAL_CAN_MspInit>
 8001026:	6822      	ldr	r2, [r4, #0]
 8001028:	6813      	ldr	r3, [r2, #0]
 800102a:	f043 0301 	orr.w	r3, r3, #1
 800102e:	6013      	str	r3, [r2, #0]
 8001030:	f7ff fdba 	bl	8000ba8 <HAL_GetTick>
 8001034:	4605      	mov	r5, r0
 8001036:	6823      	ldr	r3, [r4, #0]
 8001038:	685a      	ldr	r2, [r3, #4]
 800103a:	07d1      	lsls	r1, r2, #31
 800103c:	d551      	bpl.n	80010e2 <HAL_CAN_Init+0xce>
 800103e:	681a      	ldr	r2, [r3, #0]
 8001040:	f022 0202 	bic.w	r2, r2, #2
 8001044:	601a      	str	r2, [r3, #0]
 8001046:	f7ff fdaf 	bl	8000ba8 <HAL_GetTick>
 800104a:	4605      	mov	r5, r0
 800104c:	6823      	ldr	r3, [r4, #0]
 800104e:	685a      	ldr	r2, [r3, #4]
 8001050:	0792      	lsls	r2, r2, #30
 8001052:	d454      	bmi.n	80010fe <HAL_CAN_Init+0xea>
 8001054:	7e22      	ldrb	r2, [r4, #24]
 8001056:	2a01      	cmp	r2, #1
 8001058:	681a      	ldr	r2, [r3, #0]
 800105a:	bf0c      	ite	eq
 800105c:	f042 0280 	orreq.w	r2, r2, #128	; 0x80
 8001060:	f022 0280 	bicne.w	r2, r2, #128	; 0x80
 8001064:	601a      	str	r2, [r3, #0]
 8001066:	7e62      	ldrb	r2, [r4, #25]
 8001068:	2a01      	cmp	r2, #1
 800106a:	681a      	ldr	r2, [r3, #0]
 800106c:	bf0c      	ite	eq
 800106e:	f042 0240 	orreq.w	r2, r2, #64	; 0x40
 8001072:	f022 0240 	bicne.w	r2, r2, #64	; 0x40
 8001076:	601a      	str	r2, [r3, #0]
 8001078:	7ea2      	ldrb	r2, [r4, #26]
 800107a:	2a01      	cmp	r2, #1
 800107c:	681a      	ldr	r2, [r3, #0]
 800107e:	bf0c      	ite	eq
 8001080:	f042 0220 	orreq.w	r2, r2, #32
 8001084:	f022 0220 	bicne.w	r2, r2, #32
 8001088:	601a      	str	r2, [r3, #0]
 800108a:	7ee2      	ldrb	r2, [r4, #27]
 800108c:	2a01      	cmp	r2, #1
 800108e:	681a      	ldr	r2, [r3, #0]
 8001090:	bf0c      	ite	eq
 8001092:	f022 0210 	biceq.w	r2, r2, #16
 8001096:	f042 0210 	orrne.w	r2, r2, #16
 800109a:	601a      	str	r2, [r3, #0]
 800109c:	7f22      	ldrb	r2, [r4, #28]
 800109e:	2a01      	cmp	r2, #1
 80010a0:	681a      	ldr	r2, [r3, #0]
 80010a2:	bf0c      	ite	eq
 80010a4:	f042 0208 	orreq.w	r2, r2, #8
 80010a8:	f022 0208 	bicne.w	r2, r2, #8
 80010ac:	601a      	str	r2, [r3, #0]
 80010ae:	7f62      	ldrb	r2, [r4, #29]
 80010b0:	2a01      	cmp	r2, #1
 80010b2:	681a      	ldr	r2, [r3, #0]
 80010b4:	bf0c      	ite	eq
 80010b6:	f042 0204 	orreq.w	r2, r2, #4
 80010ba:	f022 0204 	bicne.w	r2, r2, #4
 80010be:	601a      	str	r2, [r3, #0]
 80010c0:	e9d4 2102 	ldrd	r2, r1, [r4, #8]
 80010c4:	430a      	orrs	r2, r1
 80010c6:	6921      	ldr	r1, [r4, #16]
 80010c8:	430a      	orrs	r2, r1
 80010ca:	6961      	ldr	r1, [r4, #20]
 80010cc:	430a      	orrs	r2, r1
 80010ce:	6861      	ldr	r1, [r4, #4]
 80010d0:	3901      	subs	r1, #1
 80010d2:	430a      	orrs	r2, r1
 80010d4:	61da      	str	r2, [r3, #28]
 80010d6:	2000      	movs	r0, #0
 80010d8:	2301      	movs	r3, #1
 80010da:	6260      	str	r0, [r4, #36]	; 0x24
 80010dc:	f884 3020 	strb.w	r3, [r4, #32]
 80010e0:	bd38      	pop	{r3, r4, r5, pc}
 80010e2:	f7ff fd61 	bl	8000ba8 <HAL_GetTick>
 80010e6:	1b40      	subs	r0, r0, r5
 80010e8:	280a      	cmp	r0, #10
 80010ea:	d9a4      	bls.n	8001036 <HAL_CAN_Init+0x22>
 80010ec:	6a63      	ldr	r3, [r4, #36]	; 0x24
 80010ee:	f443 3300 	orr.w	r3, r3, #131072	; 0x20000
 80010f2:	6263      	str	r3, [r4, #36]	; 0x24
 80010f4:	2305      	movs	r3, #5
 80010f6:	f884 3020 	strb.w	r3, [r4, #32]
 80010fa:	2001      	movs	r0, #1
 80010fc:	e7f0      	b.n	80010e0 <HAL_CAN_Init+0xcc>
 80010fe:	f7ff fd53 	bl	8000ba8 <HAL_GetTick>
 8001102:	1b40      	subs	r0, r0, r5
 8001104:	280a      	cmp	r0, #10
 8001106:	d9a1      	bls.n	800104c <HAL_CAN_Init+0x38>
 8001108:	e7f0      	b.n	80010ec <HAL_CAN_Init+0xd8>

0800110a <HAL_CAN_Start>:
 800110a:	b570      	push	{r4, r5, r6, lr}
 800110c:	f890 3020 	ldrb.w	r3, [r0, #32]
 8001110:	2b01      	cmp	r3, #1
 8001112:	4604      	mov	r4, r0
 8001114:	b2dd      	uxtb	r5, r3
 8001116:	d120      	bne.n	800115a <HAL_CAN_Start+0x50>
 8001118:	6802      	ldr	r2, [r0, #0]
 800111a:	2302      	movs	r3, #2
 800111c:	f880 3020 	strb.w	r3, [r0, #32]
 8001120:	6813      	ldr	r3, [r2, #0]
 8001122:	f023 0301 	bic.w	r3, r3, #1
 8001126:	6013      	str	r3, [r2, #0]
 8001128:	f7ff fd3e 	bl	8000ba8 <HAL_GetTick>
 800112c:	4606      	mov	r6, r0
 800112e:	6823      	ldr	r3, [r4, #0]
 8001130:	685b      	ldr	r3, [r3, #4]
 8001132:	f013 0301 	ands.w	r3, r3, #1
 8001136:	d102      	bne.n	800113e <HAL_CAN_Start+0x34>
 8001138:	6263      	str	r3, [r4, #36]	; 0x24
 800113a:	461d      	mov	r5, r3
 800113c:	e00b      	b.n	8001156 <HAL_CAN_Start+0x4c>
 800113e:	f7ff fd33 	bl	8000ba8 <HAL_GetTick>
 8001142:	1b80      	subs	r0, r0, r6
 8001144:	280a      	cmp	r0, #10
 8001146:	d9f2      	bls.n	800112e <HAL_CAN_Start+0x24>
 8001148:	6a63      	ldr	r3, [r4, #36]	; 0x24
 800114a:	f443 3300 	orr.w	r3, r3, #131072	; 0x20000
 800114e:	6263      	str	r3, [r4, #36]	; 0x24
 8001150:	2305      	movs	r3, #5
 8001152:	f884 3020 	strb.w	r3, [r4, #32]
 8001156:	4628      	mov	r0, r5
 8001158:	bd70      	pop	{r4, r5, r6, pc}
 800115a:	6a43      	ldr	r3, [r0, #36]	; 0x24
 800115c:	f443 2300 	orr.w	r3, r3, #524288	; 0x80000
 8001160:	6243      	str	r3, [r0, #36]	; 0x24
 8001162:	2501      	movs	r5, #1
 8001164:	e7f7      	b.n	8001156 <HAL_CAN_Start+0x4c>

08001166 <HAL_CAN_Stop>:
 8001166:	b538      	push	{r3, r4, r5, lr}
 8001168:	f890 3020 	ldrb.w	r3, [r0, #32]
 800116c:	2b02      	cmp	r3, #2
 800116e:	4604      	mov	r4, r0
 8001170:	d122      	bne.n	80011b8 <HAL_CAN_Stop+0x52>
 8001172:	6802      	ldr	r2, [r0, #0]
 8001174:	6813      	ldr	r3, [r2, #0]
 8001176:	f043 0301 	orr.w	r3, r3, #1
 800117a:	6013      	str	r3, [r2, #0]
 800117c:	f7ff fd14 	bl	8000ba8 <HAL_GetTick>
 8001180:	4605      	mov	r5, r0
 8001182:	6823      	ldr	r3, [r4, #0]
 8001184:	685a      	ldr	r2, [r3, #4]
 8001186:	07d2      	lsls	r2, r2, #31
 8001188:	d508      	bpl.n	800119c <HAL_CAN_Stop+0x36>
 800118a:	681a      	ldr	r2, [r3, #0]
 800118c:	f022 0202 	bic.w	r2, r2, #2
 8001190:	601a      	str	r2, [r3, #0]
 8001192:	2301      	movs	r3, #1
 8001194:	f884 3020 	strb.w	r3, [r4, #32]
 8001198:	2000      	movs	r0, #0
 800119a:	bd38      	pop	{r3, r4, r5, pc}
 800119c:	f7ff fd04 	bl	8000ba8 <HAL_GetTick>
 80011a0:	1b40      	subs	r0, r0, r5
 80011a2:	280a      	cmp	r0, #10
 80011a4:	d9ed      	bls.n	8001182 <HAL_CAN_Stop+0x1c>
 80011a6:	6a63      	ldr	r3, [r4, #36]	; 0x24
 80011a8:	f443 3300 	orr.w	r3, r3, #131072	; 0x20000
 80011ac:	6263      	str	r3, [r4, #36]	; 0x24
 80011ae:	2305      	movs	r3, #5
 80011b0:	f884 3020 	strb.w	r3, [r4, #32]
 80011b4:	2001      	movs	r0, #1
 80011b6:	e7f0      	b.n	800119a <HAL_CAN_Stop+0x34>
 80011b8:	6a43      	ldr	r3, [r0, #36]	; 0x24
 80011ba:	f443 1380 	orr.w	r3, r3, #1048576	; 0x100000
 80011be:	6243      	str	r3, [r0, #36]	; 0x24
 80011c0:	e7f8      	b.n	80011b4 <HAL_CAN_Stop+0x4e>

080011c2 <HAL_CAN_AddTxMessage>:
 80011c2:	b5f0      	push	{r4, r5, r6, r7, lr}
 80011c4:	f890 5020 	ldrb.w	r5, [r0, #32]
 80011c8:	6806      	ldr	r6, [r0, #0]
 80011ca:	3d01      	subs	r5, #1
 80011cc:	2d01      	cmp	r5, #1
 80011ce:	68b4      	ldr	r4, [r6, #8]
 80011d0:	d845      	bhi.n	800125e <HAL_CAN_AddTxMessage+0x9c>
 80011d2:	f014 5fe0 	tst.w	r4, #469762048	; 0x1c000000
 80011d6:	d03e      	beq.n	8001256 <HAL_CAN_AddTxMessage+0x94>
 80011d8:	f3c4 6401 	ubfx	r4, r4, #24, #2
 80011dc:	2c03      	cmp	r4, #3
 80011de:	f04f 0501 	mov.w	r5, #1
 80011e2:	d105      	bne.n	80011f0 <HAL_CAN_AddTxMessage+0x2e>
 80011e4:	6a43      	ldr	r3, [r0, #36]	; 0x24
 80011e6:	f443 0300 	orr.w	r3, r3, #8388608	; 0x800000
 80011ea:	6243      	str	r3, [r0, #36]	; 0x24
 80011ec:	2001      	movs	r0, #1
 80011ee:	e02a      	b.n	8001246 <HAL_CAN_AddTxMessage+0x84>
 80011f0:	40a5      	lsls	r5, r4
 80011f2:	601d      	str	r5, [r3, #0]
 80011f4:	e9d1 0702 	ldrd	r0, r7, [r1, #8]
 80011f8:	f104 0318 	add.w	r3, r4, #24
 80011fc:	bb20      	cbnz	r0, 8001248 <HAL_CAN_AddTxMessage+0x86>
 80011fe:	6808      	ldr	r0, [r1, #0]
 8001200:	011b      	lsls	r3, r3, #4
 8001202:	ea47 5740 	orr.w	r7, r7, r0, lsl #21
 8001206:	50f7      	str	r7, [r6, r3]
 8001208:	eb06 1304 	add.w	r3, r6, r4, lsl #4
 800120c:	690d      	ldr	r5, [r1, #16]
 800120e:	f8c3 5184 	str.w	r5, [r3, #388]	; 0x184
 8001212:	7d09      	ldrb	r1, [r1, #20]
 8001214:	2901      	cmp	r1, #1
 8001216:	bf08      	it	eq
 8001218:	f8d3 1184 	ldreq.w	r1, [r3, #388]	; 0x184
 800121c:	ea4f 1004 	mov.w	r0, r4, lsl #4
 8001220:	bf04      	itt	eq
 8001222:	f441 7180 	orreq.w	r1, r1, #256	; 0x100
 8001226:	f8c3 1184 	streq.w	r1, [r3, #388]	; 0x184
 800122a:	4406      	add	r6, r0
 800122c:	6851      	ldr	r1, [r2, #4]
 800122e:	f8c6 118c 	str.w	r1, [r6, #396]	; 0x18c
 8001232:	6812      	ldr	r2, [r2, #0]
 8001234:	f8c6 2188 	str.w	r2, [r6, #392]	; 0x188
 8001238:	f8d3 2180 	ldr.w	r2, [r3, #384]	; 0x180
 800123c:	f042 0201 	orr.w	r2, r2, #1
 8001240:	f8c3 2180 	str.w	r2, [r3, #384]	; 0x180
 8001244:	2000      	movs	r0, #0
 8001246:	bdf0      	pop	{r4, r5, r6, r7, pc}
 8001248:	684d      	ldr	r5, [r1, #4]
 800124a:	4338      	orrs	r0, r7
 800124c:	011b      	lsls	r3, r3, #4
 800124e:	ea40 00c5 	orr.w	r0, r0, r5, lsl #3
 8001252:	50f0      	str	r0, [r6, r3]
 8001254:	e7d8      	b.n	8001208 <HAL_CAN_AddTxMessage+0x46>
 8001256:	6a43      	ldr	r3, [r0, #36]	; 0x24
 8001258:	f443 1300 	orr.w	r3, r3, #2097152	; 0x200000
 800125c:	e7c5      	b.n	80011ea <HAL_CAN_AddTxMessage+0x28>
 800125e:	6a43      	ldr	r3, [r0, #36]	; 0x24
 8001260:	f443 2380 	orr.w	r3, r3, #262144	; 0x40000
 8001264:	e7c1      	b.n	80011ea <HAL_CAN_AddTxMessage+0x28>
	...

08001268 <HAL_NVIC_SetPriorityGrouping>:
 8001268:	4907      	ldr	r1, [pc, #28]	; (8001288 <HAL_NVIC_SetPriorityGrouping+0x20>)
 800126a:	68ca      	ldr	r2, [r1, #12]
 800126c:	f422 62e0 	bic.w	r2, r2, #1792	; 0x700
 8001270:	0203      	lsls	r3, r0, #8
 8001272:	0412      	lsls	r2, r2, #16
 8001274:	f403 63e0 	and.w	r3, r3, #1792	; 0x700
 8001278:	0c12      	lsrs	r2, r2, #16
 800127a:	4313      	orrs	r3, r2
 800127c:	f043 63bf 	orr.w	r3, r3, #100139008	; 0x5f80000
 8001280:	f443 3300 	orr.w	r3, r3, #131072	; 0x20000
 8001284:	60cb      	str	r3, [r1, #12]
 8001286:	4770      	bx	lr
 8001288:	e000ed00 	.word	0xe000ed00

0800128c <HAL_NVIC_SetPriority>:
 800128c:	4b16      	ldr	r3, [pc, #88]	; (80012e8 <HAL_NVIC_SetPriority+0x5c>)
 800128e:	b530      	push	{r4, r5, lr}
 8001290:	68dc      	ldr	r4, [r3, #12]
 8001292:	f3c4 2402 	ubfx	r4, r4, #8, #3
 8001296:	f1c4 0307 	rsb	r3, r4, #7
 800129a:	1d25      	adds	r5, r4, #4
 800129c:	2b04      	cmp	r3, #4
 800129e:	bf28      	it	cs
 80012a0:	2304      	movcs	r3, #4
 80012a2:	2d06      	cmp	r5, #6
 80012a4:	f04f 35ff 	mov.w	r5, #4294967295
 80012a8:	bf8c      	ite	hi
 80012aa:	3c03      	subhi	r4, #3
 80012ac:	2400      	movls	r4, #0
 80012ae:	fa05 f303 	lsl.w	r3, r5, r3
 80012b2:	ea21 0303 	bic.w	r3, r1, r3
 80012b6:	40a5      	lsls	r5, r4
 80012b8:	ea22 0205 	bic.w	r2, r2, r5
 80012bc:	40a3      	lsls	r3, r4
 80012be:	2800      	cmp	r0, #0
 80012c0:	ea43 0302 	orr.w	r3, r3, r2
 80012c4:	bfac      	ite	ge
 80012c6:	f100 4060 	addge.w	r0, r0, #3758096384	; 0xe0000000
 80012ca:	4a08      	ldrlt	r2, [pc, #32]	; (80012ec <HAL_NVIC_SetPriority+0x60>)
 80012cc:	ea4f 1303 	mov.w	r3, r3, lsl #4
 80012d0:	bfb8      	it	lt
 80012d2:	f000 000f 	andlt.w	r0, r0, #15
 80012d6:	b2db      	uxtb	r3, r3
 80012d8:	bfaa      	itet	ge
 80012da:	f500 4061 	addge.w	r0, r0, #57600	; 0xe100
 80012de:	5413      	strblt	r3, [r2, r0]
 80012e0:	f880 3300 	strbge.w	r3, [r0, #768]	; 0x300
 80012e4:	bd30      	pop	{r4, r5, pc}
 80012e6:	bf00      	nop
 80012e8:	e000ed00 	.word	0xe000ed00
 80012ec:	e000ed14 	.word	0xe000ed14

080012f0 <HAL_NVIC_EnableIRQ>:
 80012f0:	2800      	cmp	r0, #0
 80012f2:	db07      	blt.n	8001304 <HAL_NVIC_EnableIRQ+0x14>
 80012f4:	0941      	lsrs	r1, r0, #5
 80012f6:	4a04      	ldr	r2, [pc, #16]	; (8001308 <HAL_NVIC_EnableIRQ+0x18>)
 80012f8:	f000 001f 	and.w	r0, r0, #31
 80012fc:	2301      	movs	r3, #1
 80012fe:	4083      	lsls	r3, r0
 8001300:	f842 3021 	str.w	r3, [r2, r1, lsl #2]
 8001304:	4770      	bx	lr
 8001306:	bf00      	nop
 8001308:	e000e100 	.word	0xe000e100

0800130c <HAL_SYSTICK_Config>:
 800130c:	3801      	subs	r0, #1
 800130e:	f1b0 7f80 	cmp.w	r0, #16777216	; 0x1000000
 8001312:	d20b      	bcs.n	800132c <HAL_SYSTICK_Config+0x20>
 8001314:	f04f 23e0 	mov.w	r3, #3758153728	; 0xe000e000
 8001318:	4a05      	ldr	r2, [pc, #20]	; (8001330 <HAL_SYSTICK_Config+0x24>)
 800131a:	6158      	str	r0, [r3, #20]
 800131c:	21f0      	movs	r1, #240	; 0xf0
 800131e:	f882 1023 	strb.w	r1, [r2, #35]	; 0x23
 8001322:	2000      	movs	r0, #0
 8001324:	2207      	movs	r2, #7
 8001326:	6198      	str	r0, [r3, #24]
 8001328:	611a      	str	r2, [r3, #16]
 800132a:	4770      	bx	lr
 800132c:	2001      	movs	r0, #1
 800132e:	4770      	bx	lr
 8001330:	e000ed00 	.word	0xe000ed00

08001334 <HAL_GPIO_Init>:
 8001334:	e92d 4ff7 	stmdb	sp!, {r0, r1, r2, r4, r5, r6, r7, r8, r9, sl, fp, lr}
 8001338:	f8df 9184 	ldr.w	r9, [pc, #388]	; 80014c0 <HAL_GPIO_Init+0x18c>
 800133c:	4a5e      	ldr	r2, [pc, #376]	; (80014b8 <HAL_GPIO_Init+0x184>)
 800133e:	2300      	movs	r3, #0
 8001340:	680d      	ldr	r5, [r1, #0]
 8001342:	2401      	movs	r4, #1
 8001344:	409c      	lsls	r4, r3
 8001346:	ea04 0c05 	and.w	ip, r4, r5
 800134a:	43ac      	bics	r4, r5
 800134c:	f040 80a5 	bne.w	800149a <HAL_GPIO_Init+0x166>
 8001350:	684d      	ldr	r5, [r1, #4]
 8001352:	f005 0403 	and.w	r4, r5, #3
 8001356:	ea4f 0843 	mov.w	r8, r3, lsl #1
 800135a:	2603      	movs	r6, #3
 800135c:	1e67      	subs	r7, r4, #1
 800135e:	fa06 f608 	lsl.w	r6, r6, r8
 8001362:	2f01      	cmp	r7, #1
 8001364:	ea6f 0606 	mvn.w	r6, r6
 8001368:	d834      	bhi.n	80013d4 <HAL_GPIO_Init+0xa0>
 800136a:	6887      	ldr	r7, [r0, #8]
 800136c:	ea07 0e06 	and.w	lr, r7, r6
 8001370:	68cf      	ldr	r7, [r1, #12]
 8001372:	fa07 f708 	lsl.w	r7, r7, r8
 8001376:	ea47 070e 	orr.w	r7, r7, lr
 800137a:	6087      	str	r7, [r0, #8]
 800137c:	6847      	ldr	r7, [r0, #4]
 800137e:	ea27 0e0c 	bic.w	lr, r7, ip
 8001382:	f3c5 1700 	ubfx	r7, r5, #4, #1
 8001386:	409f      	lsls	r7, r3
 8001388:	ea47 070e 	orr.w	r7, r7, lr
 800138c:	6047      	str	r7, [r0, #4]
 800138e:	68c7      	ldr	r7, [r0, #12]
 8001390:	ea07 0e06 	and.w	lr, r7, r6
 8001394:	688f      	ldr	r7, [r1, #8]
 8001396:	fa07 f708 	lsl.w	r7, r7, r8
 800139a:	ea47 070e 	orr.w	r7, r7, lr
 800139e:	2c02      	cmp	r4, #2
 80013a0:	60c7      	str	r7, [r0, #12]
 80013a2:	d119      	bne.n	80013d8 <HAL_GPIO_Init+0xa4>
 80013a4:	ea4f 0ad3 	mov.w	sl, r3, lsr #3
 80013a8:	eb00 0a8a 	add.w	sl, r0, sl, lsl #2
 80013ac:	f003 0b07 	and.w	fp, r3, #7
 80013b0:	f8da 7020 	ldr.w	r7, [sl, #32]
 80013b4:	ea4f 0b8b 	mov.w	fp, fp, lsl #2
 80013b8:	f04f 0e0f 	mov.w	lr, #15
 80013bc:	fa0e fe0b 	lsl.w	lr, lr, fp
 80013c0:	ea27 0e0e 	bic.w	lr, r7, lr
 80013c4:	690f      	ldr	r7, [r1, #16]
 80013c6:	fa07 f70b 	lsl.w	r7, r7, fp
 80013ca:	ea47 070e 	orr.w	r7, r7, lr
 80013ce:	f8ca 7020 	str.w	r7, [sl, #32]
 80013d2:	e001      	b.n	80013d8 <HAL_GPIO_Init+0xa4>
 80013d4:	2c03      	cmp	r4, #3
 80013d6:	d1da      	bne.n	800138e <HAL_GPIO_Init+0x5a>
 80013d8:	6807      	ldr	r7, [r0, #0]
 80013da:	fa04 f408 	lsl.w	r4, r4, r8
 80013de:	4037      	ands	r7, r6
 80013e0:	433c      	orrs	r4, r7
 80013e2:	f415 3f40 	tst.w	r5, #196608	; 0x30000
 80013e6:	6004      	str	r4, [r0, #0]
 80013e8:	d057      	beq.n	800149a <HAL_GPIO_Init+0x166>
 80013ea:	f04f 0a00 	mov.w	sl, #0
 80013ee:	f8cd a004 	str.w	sl, [sp, #4]
 80013f2:	f8d9 6044 	ldr.w	r6, [r9, #68]	; 0x44
 80013f6:	4c31      	ldr	r4, [pc, #196]	; (80014bc <HAL_GPIO_Init+0x188>)
 80013f8:	f446 4680 	orr.w	r6, r6, #16384	; 0x4000
 80013fc:	f8c9 6044 	str.w	r6, [r9, #68]	; 0x44
 8001400:	f8d9 6044 	ldr.w	r6, [r9, #68]	; 0x44
 8001404:	f406 4680 	and.w	r6, r6, #16384	; 0x4000
 8001408:	9601      	str	r6, [sp, #4]
 800140a:	9e01      	ldr	r6, [sp, #4]
 800140c:	f023 0603 	bic.w	r6, r3, #3
 8001410:	f106 4680 	add.w	r6, r6, #1073741824	; 0x40000000
 8001414:	f506 369c 	add.w	r6, r6, #79872	; 0x13800
 8001418:	f003 0e03 	and.w	lr, r3, #3
 800141c:	f8d6 8008 	ldr.w	r8, [r6, #8]
 8001420:	ea4f 0e8e 	mov.w	lr, lr, lsl #2
 8001424:	270f      	movs	r7, #15
 8001426:	fa07 f70e 	lsl.w	r7, r7, lr
 800142a:	42a0      	cmp	r0, r4
 800142c:	ea28 0707 	bic.w	r7, r8, r7
 8001430:	d03a      	beq.n	80014a8 <HAL_GPIO_Init+0x174>
 8001432:	f504 6480 	add.w	r4, r4, #1024	; 0x400
 8001436:	42a0      	cmp	r0, r4
 8001438:	d038      	beq.n	80014ac <HAL_GPIO_Init+0x178>
 800143a:	f504 6480 	add.w	r4, r4, #1024	; 0x400
 800143e:	42a0      	cmp	r0, r4
 8001440:	d036      	beq.n	80014b0 <HAL_GPIO_Init+0x17c>
 8001442:	f504 6480 	add.w	r4, r4, #1024	; 0x400
 8001446:	42a0      	cmp	r0, r4
 8001448:	d034      	beq.n	80014b4 <HAL_GPIO_Init+0x180>
 800144a:	f504 6480 	add.w	r4, r4, #1024	; 0x400
 800144e:	42a0      	cmp	r0, r4
 8001450:	bf0c      	ite	eq
 8001452:	2404      	moveq	r4, #4
 8001454:	2407      	movne	r4, #7
 8001456:	fa04 f40e 	lsl.w	r4, r4, lr
 800145a:	433c      	orrs	r4, r7
 800145c:	60b4      	str	r4, [r6, #8]
 800145e:	6894      	ldr	r4, [r2, #8]
 8001460:	ea6f 060c 	mvn.w	r6, ip
 8001464:	02ef      	lsls	r7, r5, #11
 8001466:	bf54      	ite	pl
 8001468:	4034      	andpl	r4, r6
 800146a:	ea4c 0404 	orrmi.w	r4, ip, r4
 800146e:	6094      	str	r4, [r2, #8]
 8001470:	68d4      	ldr	r4, [r2, #12]
 8001472:	02af      	lsls	r7, r5, #10
 8001474:	bf54      	ite	pl
 8001476:	4034      	andpl	r4, r6
 8001478:	ea4c 0404 	orrmi.w	r4, ip, r4
 800147c:	60d4      	str	r4, [r2, #12]
 800147e:	6854      	ldr	r4, [r2, #4]
 8001480:	03af      	lsls	r7, r5, #14
 8001482:	bf54      	ite	pl
 8001484:	4034      	andpl	r4, r6
 8001486:	ea4c 0404 	orrmi.w	r4, ip, r4
 800148a:	6054      	str	r4, [r2, #4]
 800148c:	6814      	ldr	r4, [r2, #0]
 800148e:	03ed      	lsls	r5, r5, #15
 8001490:	bf54      	ite	pl
 8001492:	4034      	andpl	r4, r6
 8001494:	ea4c 0404 	orrmi.w	r4, ip, r4
 8001498:	6014      	str	r4, [r2, #0]
 800149a:	3301      	adds	r3, #1
 800149c:	2b10      	cmp	r3, #16
 800149e:	f47f af4f 	bne.w	8001340 <HAL_GPIO_Init+0xc>
 80014a2:	b003      	add	sp, #12
 80014a4:	e8bd 8ff0 	ldmia.w	sp!, {r4, r5, r6, r7, r8, r9, sl, fp, pc}
 80014a8:	4654      	mov	r4, sl
 80014aa:	e7d4      	b.n	8001456 <HAL_GPIO_Init+0x122>
 80014ac:	2401      	movs	r4, #1
 80014ae:	e7d2      	b.n	8001456 <HAL_GPIO_Init+0x122>
 80014b0:	2402      	movs	r4, #2
 80014b2:	e7d0      	b.n	8001456 <HAL_GPIO_Init+0x122>
 80014b4:	2403      	movs	r4, #3
 80014b6:	e7ce      	b.n	8001456 <HAL_GPIO_Init+0x122>
 80014b8:	40013c00 	.word	0x40013c00
 80014bc:	40020000 	.word	0x40020000
 80014c0:	40023800 	.word	0x40023800

080014c4 <HAL_GPIO_ReadPin>:
 80014c4:	6903      	ldr	r3, [r0, #16]
 80014c6:	4219      	tst	r1, r3
 80014c8:	bf14      	ite	ne
 80014ca:	2001      	movne	r0, #1
 80014cc:	2000      	moveq	r0, #0
 80014ce:	4770      	bx	lr

080014d0 <HAL_GPIO_WritePin>:
 80014d0:	b10a      	cbz	r2, 80014d6 <HAL_GPIO_WritePin+0x6>
 80014d2:	6181      	str	r1, [r0, #24]
 80014d4:	4770      	bx	lr
 80014d6:	0409      	lsls	r1, r1, #16
 80014d8:	e7fb      	b.n	80014d2 <HAL_GPIO_WritePin+0x2>

080014da <HAL_PCD_Init>:
 80014da:	b5f0      	push	{r4, r5, r6, r7, lr}
 80014dc:	4604      	mov	r4, r0
 80014de:	b08b      	sub	sp, #44	; 0x2c
 80014e0:	b360      	cbz	r0, 800153c <HAL_PCD_Init+0x62>
 80014e2:	f890 34bd 	ldrb.w	r3, [r0, #1213]	; 0x4bd
 80014e6:	6805      	ldr	r5, [r0, #0]
 80014e8:	f003 02ff 	and.w	r2, r3, #255	; 0xff
 80014ec:	b91b      	cbnz	r3, 80014f6 <HAL_PCD_Init+0x1c>
 80014ee:	f880 24bc 	strb.w	r2, [r0, #1212]	; 0x4bc
 80014f2:	f002 fe35 	bl	8004160 <HAL_PCD_MspInit>
 80014f6:	2303      	movs	r3, #3
 80014f8:	f884 34bd 	strb.w	r3, [r4, #1213]	; 0x4bd
 80014fc:	6beb      	ldr	r3, [r5, #60]	; 0x3c
 80014fe:	4625      	mov	r5, r4
 8001500:	f413 7380 	ands.w	r3, r3, #256	; 0x100
 8001504:	f855 0b10 	ldr.w	r0, [r5], #16
 8001508:	bf08      	it	eq
 800150a:	6123      	streq	r3, [r4, #16]
 800150c:	f001 fa60 	bl	80029d0 <USB_DisableGlobalInt>
 8001510:	cd0f      	ldmia	r5!, {r0, r1, r2, r3}
 8001512:	466e      	mov	r6, sp
 8001514:	c60f      	stmia	r6!, {r0, r1, r2, r3}
 8001516:	cd0f      	ldmia	r5!, {r0, r1, r2, r3}
 8001518:	c60f      	stmia	r6!, {r0, r1, r2, r3}
 800151a:	e895 0003 	ldmia.w	r5, {r0, r1}
 800151e:	e886 0003 	stmia.w	r6, {r0, r1}
 8001522:	4625      	mov	r5, r4
 8001524:	1d27      	adds	r7, r4, #4
 8001526:	e897 000e 	ldmia.w	r7, {r1, r2, r3}
 800152a:	f855 0b10 	ldr.w	r0, [r5], #16
 800152e:	f001 f999 	bl	8002864 <USB_CoreInit>
 8001532:	4606      	mov	r6, r0
 8001534:	b120      	cbz	r0, 8001540 <HAL_PCD_Init+0x66>
 8001536:	2302      	movs	r3, #2
 8001538:	f884 34bd 	strb.w	r3, [r4, #1213]	; 0x4bd
 800153c:	2501      	movs	r5, #1
 800153e:	e054      	b.n	80015ea <HAL_PCD_Init+0x110>
 8001540:	4601      	mov	r1, r0
 8001542:	6820      	ldr	r0, [r4, #0]
 8001544:	f001 fa4a 	bl	80029dc <USB_SetCurrentMode>
 8001548:	4630      	mov	r0, r6
 800154a:	f8d4 c004 	ldr.w	ip, [r4, #4]
 800154e:	2624      	movs	r6, #36	; 0x24
 8001550:	f04f 0e01 	mov.w	lr, #1
 8001554:	4601      	mov	r1, r0
 8001556:	b2c2      	uxtb	r2, r0
 8001558:	4594      	cmp	ip, r2
 800155a:	f100 0001 	add.w	r0, r0, #1
 800155e:	d81c      	bhi.n	800159a <HAL_PCD_Init+0xc0>
 8001560:	2300      	movs	r3, #0
 8001562:	2624      	movs	r6, #36	; 0x24
 8001564:	4619      	mov	r1, r3
 8001566:	b2d8      	uxtb	r0, r3
 8001568:	4584      	cmp	ip, r0
 800156a:	f103 0301 	add.w	r3, r3, #1
 800156e:	d822      	bhi.n	80015b6 <HAL_PCD_Init+0xdc>
 8001570:	cd0f      	ldmia	r5!, {r0, r1, r2, r3}
 8001572:	466e      	mov	r6, sp
 8001574:	c60f      	stmia	r6!, {r0, r1, r2, r3}
 8001576:	cd0f      	ldmia	r5!, {r0, r1, r2, r3}
 8001578:	c60f      	stmia	r6!, {r0, r1, r2, r3}
 800157a:	e895 0003 	ldmia.w	r5, {r0, r1}
 800157e:	e886 0003 	stmia.w	r6, {r0, r1}
 8001582:	e897 000e 	ldmia.w	r7, {r1, r2, r3}
 8001586:	6820      	ldr	r0, [r4, #0]
 8001588:	f001 faaa 	bl	8002ae0 <USB_DevInit>
 800158c:	2301      	movs	r3, #1
 800158e:	4605      	mov	r5, r0
 8001590:	b1f0      	cbz	r0, 80015d0 <HAL_PCD_Init+0xf6>
 8001592:	2202      	movs	r2, #2
 8001594:	f884 24bd 	strb.w	r2, [r4, #1213]	; 0x4bd
 8001598:	e7d0      	b.n	800153c <HAL_PCD_Init+0x62>
 800159a:	fb06 4302 	mla	r3, r6, r2, r4
 800159e:	e9c3 1112 	strd	r1, r1, [r3, #72]	; 0x48
 80015a2:	f883 e03d 	strb.w	lr, [r3, #61]	; 0x3d
 80015a6:	f883 203c 	strb.w	r2, [r3, #60]	; 0x3c
 80015aa:	f8a3 2044 	strh.w	r2, [r3, #68]	; 0x44
 80015ae:	f883 1040 	strb.w	r1, [r3, #64]	; 0x40
 80015b2:	6559      	str	r1, [r3, #84]	; 0x54
 80015b4:	e7cf      	b.n	8001556 <HAL_PCD_Init+0x7c>
 80015b6:	fb06 4200 	mla	r2, r6, r0, r4
 80015ba:	e9c2 11a2 	strd	r1, r1, [r2, #648]	; 0x288
 80015be:	f882 127d 	strb.w	r1, [r2, #637]	; 0x27d
 80015c2:	f882 027c 	strb.w	r0, [r2, #636]	; 0x27c
 80015c6:	f882 1280 	strb.w	r1, [r2, #640]	; 0x280
 80015ca:	f8c2 1294 	str.w	r1, [r2, #660]	; 0x294
 80015ce:	e7ca      	b.n	8001566 <HAL_PCD_Init+0x8c>
 80015d0:	f884 0038 	strb.w	r0, [r4, #56]	; 0x38
 80015d4:	f884 34bd 	strb.w	r3, [r4, #1213]	; 0x4bd
 80015d8:	6a63      	ldr	r3, [r4, #36]	; 0x24
 80015da:	2b01      	cmp	r3, #1
 80015dc:	d102      	bne.n	80015e4 <HAL_PCD_Init+0x10a>
 80015de:	4620      	mov	r0, r4
 80015e0:	f000 fcf6 	bl	8001fd0 <HAL_PCDEx_ActivateLPM>
 80015e4:	6820      	ldr	r0, [r4, #0]
 80015e6:	f001 fe1f 	bl	8003228 <USB_DevDisconnect>
 80015ea:	4628      	mov	r0, r5
 80015ec:	b00b      	add	sp, #44	; 0x2c
 80015ee:	bdf0      	pop	{r4, r5, r6, r7, pc}

080015f0 <HAL_PCD_Start>:
 80015f0:	b510      	push	{r4, lr}
 80015f2:	4604      	mov	r4, r0
 80015f4:	6800      	ldr	r0, [r0, #0]
 80015f6:	f894 34bc 	ldrb.w	r3, [r4, #1212]	; 0x4bc
 80015fa:	2b01      	cmp	r3, #1
 80015fc:	d015      	beq.n	800162a <HAL_PCD_Start+0x3a>
 80015fe:	2301      	movs	r3, #1
 8001600:	f884 34bc 	strb.w	r3, [r4, #1212]	; 0x4bc
 8001604:	6aa3      	ldr	r3, [r4, #40]	; 0x28
 8001606:	2b01      	cmp	r3, #1
 8001608:	d106      	bne.n	8001618 <HAL_PCD_Start+0x28>
 800160a:	69a3      	ldr	r3, [r4, #24]
 800160c:	2b01      	cmp	r3, #1
 800160e:	bf1e      	ittt	ne
 8001610:	6b83      	ldrne	r3, [r0, #56]	; 0x38
 8001612:	f443 3380 	orrne.w	r3, r3, #65536	; 0x10000
 8001616:	6383      	strne	r3, [r0, #56]	; 0x38
 8001618:	f001 f9d4 	bl	80029c4 <USB_EnableGlobalInt>
 800161c:	6820      	ldr	r0, [r4, #0]
 800161e:	f001 fdf5 	bl	800320c <USB_DevConnect>
 8001622:	2000      	movs	r0, #0
 8001624:	f884 04bc 	strb.w	r0, [r4, #1212]	; 0x4bc
 8001628:	bd10      	pop	{r4, pc}
 800162a:	2002      	movs	r0, #2
 800162c:	e7fc      	b.n	8001628 <HAL_PCD_Start+0x38>

0800162e <HAL_PCD_SetAddress>:
 800162e:	b510      	push	{r4, lr}
 8001630:	f890 24bc 	ldrb.w	r2, [r0, #1212]	; 0x4bc
 8001634:	2a01      	cmp	r2, #1
 8001636:	4604      	mov	r4, r0
 8001638:	d00b      	beq.n	8001652 <HAL_PCD_SetAddress+0x24>
 800163a:	2201      	movs	r2, #1
 800163c:	f880 24bc 	strb.w	r2, [r0, #1212]	; 0x4bc
 8001640:	f880 1038 	strb.w	r1, [r0, #56]	; 0x38
 8001644:	6800      	ldr	r0, [r0, #0]
 8001646:	f001 fdd1 	bl	80031ec <USB_SetDevAddress>
 800164a:	2000      	movs	r0, #0
 800164c:	f884 04bc 	strb.w	r0, [r4, #1212]	; 0x4bc
 8001650:	bd10      	pop	{r4, pc}
 8001652:	2002      	movs	r0, #2
 8001654:	e7fc      	b.n	8001650 <HAL_PCD_SetAddress+0x22>

08001656 <HAL_PCD_EP_Open>:
 8001656:	b570      	push	{r4, r5, r6, lr}
 8001658:	f001 060f 	and.w	r6, r1, #15
 800165c:	eb06 04c6 	add.w	r4, r6, r6, lsl #3
 8001660:	f011 0f80 	tst.w	r1, #128	; 0x80
 8001664:	4605      	mov	r5, r0
 8001666:	ea4f 0484 	mov.w	r4, r4, lsl #2
 800166a:	f04f 0024 	mov.w	r0, #36	; 0x24
 800166e:	d01f      	beq.n	80016b0 <HAL_PCD_EP_Open+0x5a>
 8001670:	fb00 5006 	mla	r0, r0, r6, r5
 8001674:	f104 013c 	add.w	r1, r4, #60	; 0x3c
 8001678:	2401      	movs	r4, #1
 800167a:	4429      	add	r1, r5
 800167c:	f880 403d 	strb.w	r4, [r0, #61]	; 0x3d
 8001680:	60ca      	str	r2, [r1, #12]
 8001682:	784a      	ldrb	r2, [r1, #1]
 8001684:	700e      	strb	r6, [r1, #0]
 8001686:	710b      	strb	r3, [r1, #4]
 8001688:	b102      	cbz	r2, 800168c <HAL_PCD_EP_Open+0x36>
 800168a:	810e      	strh	r6, [r1, #8]
 800168c:	2b02      	cmp	r3, #2
 800168e:	bf04      	itt	eq
 8001690:	2300      	moveq	r3, #0
 8001692:	714b      	strbeq	r3, [r1, #5]
 8001694:	f895 34bc 	ldrb.w	r3, [r5, #1212]	; 0x4bc
 8001698:	2b01      	cmp	r3, #1
 800169a:	d012      	beq.n	80016c2 <HAL_PCD_EP_Open+0x6c>
 800169c:	2301      	movs	r3, #1
 800169e:	6828      	ldr	r0, [r5, #0]
 80016a0:	f885 34bc 	strb.w	r3, [r5, #1212]	; 0x4bc
 80016a4:	f001 fadd 	bl	8002c62 <USB_ActivateEndpoint>
 80016a8:	2000      	movs	r0, #0
 80016aa:	f885 04bc 	strb.w	r0, [r5, #1212]	; 0x4bc
 80016ae:	bd70      	pop	{r4, r5, r6, pc}
 80016b0:	fb00 5006 	mla	r0, r0, r6, r5
 80016b4:	f504 711f 	add.w	r1, r4, #636	; 0x27c
 80016b8:	2400      	movs	r4, #0
 80016ba:	4429      	add	r1, r5
 80016bc:	f880 427d 	strb.w	r4, [r0, #637]	; 0x27d
 80016c0:	e7de      	b.n	8001680 <HAL_PCD_EP_Open+0x2a>
 80016c2:	2002      	movs	r0, #2
 80016c4:	e7f3      	b.n	80016ae <HAL_PCD_EP_Open+0x58>

080016c6 <HAL_PCD_EP_Close>:
 80016c6:	b510      	push	{r4, lr}
 80016c8:	4604      	mov	r4, r0
 80016ca:	f001 000f 	and.w	r0, r1, #15
 80016ce:	eb00 03c0 	add.w	r3, r0, r0, lsl #3
 80016d2:	f011 0f80 	tst.w	r1, #128	; 0x80
 80016d6:	ea4f 0383 	mov.w	r3, r3, lsl #2
 80016da:	f04f 0224 	mov.w	r2, #36	; 0x24
 80016de:	d016      	beq.n	800170e <HAL_PCD_EP_Close+0x48>
 80016e0:	fb02 4200 	mla	r2, r2, r0, r4
 80016e4:	f103 013c 	add.w	r1, r3, #60	; 0x3c
 80016e8:	2301      	movs	r3, #1
 80016ea:	4421      	add	r1, r4
 80016ec:	f882 303d 	strb.w	r3, [r2, #61]	; 0x3d
 80016f0:	7008      	strb	r0, [r1, #0]
 80016f2:	f894 34bc 	ldrb.w	r3, [r4, #1212]	; 0x4bc
 80016f6:	2b01      	cmp	r3, #1
 80016f8:	d012      	beq.n	8001720 <HAL_PCD_EP_Close+0x5a>
 80016fa:	2301      	movs	r3, #1
 80016fc:	6820      	ldr	r0, [r4, #0]
 80016fe:	f884 34bc 	strb.w	r3, [r4, #1212]	; 0x4bc
 8001702:	f001 faed 	bl	8002ce0 <USB_DeactivateEndpoint>
 8001706:	2000      	movs	r0, #0
 8001708:	f884 04bc 	strb.w	r0, [r4, #1212]	; 0x4bc
 800170c:	bd10      	pop	{r4, pc}
 800170e:	fb02 4200 	mla	r2, r2, r0, r4
 8001712:	f503 711f 	add.w	r1, r3, #636	; 0x27c
 8001716:	2300      	movs	r3, #0
 8001718:	4421      	add	r1, r4
 800171a:	f882 327d 	strb.w	r3, [r2, #637]	; 0x27d
 800171e:	e7e7      	b.n	80016f0 <HAL_PCD_EP_Close+0x2a>
 8001720:	2002      	movs	r0, #2
 8001722:	e7f3      	b.n	800170c <HAL_PCD_EP_Close+0x46>

08001724 <HAL_PCD_EP_Receive>:
 8001724:	b538      	push	{r3, r4, r5, lr}
 8001726:	f001 050f 	and.w	r5, r1, #15
 800172a:	2424      	movs	r4, #36	; 0x24
 800172c:	fb04 0105 	mla	r1, r4, r5, r0
 8001730:	fb04 0405 	mla	r4, r4, r5, r0
 8001734:	f501 711f 	add.w	r1, r1, #636	; 0x27c
 8001738:	f8c4 3294 	str.w	r3, [r4, #660]	; 0x294
 800173c:	2300      	movs	r3, #0
 800173e:	f8c4 228c 	str.w	r2, [r4, #652]	; 0x28c
 8001742:	f8c4 329c 	str.w	r3, [r4, #668]	; 0x29c
 8001746:	f884 327d 	strb.w	r3, [r4, #637]	; 0x27d
 800174a:	f884 527c 	strb.w	r5, [r4, #636]	; 0x27c
 800174e:	6903      	ldr	r3, [r0, #16]
 8001750:	6800      	ldr	r0, [r0, #0]
 8001752:	2b01      	cmp	r3, #1
 8001754:	bf08      	it	eq
 8001756:	f8c4 2290 	streq.w	r2, [r4, #656]	; 0x290
 800175a:	b2da      	uxtb	r2, r3
 800175c:	b91d      	cbnz	r5, 8001766 <HAL_PCD_EP_Receive+0x42>
 800175e:	f001 fb15 	bl	8002d8c <USB_EP0StartXfer>
 8001762:	2000      	movs	r0, #0
 8001764:	bd38      	pop	{r3, r4, r5, pc}
 8001766:	f001 fbe3 	bl	8002f30 <USB_EPStartXfer>
 800176a:	e7fa      	b.n	8001762 <HAL_PCD_EP_Receive+0x3e>

0800176c <HAL_PCD_EP_GetRxCount>:
 800176c:	f001 010f 	and.w	r1, r1, #15
 8001770:	2324      	movs	r3, #36	; 0x24
 8001772:	fb03 0001 	mla	r0, r3, r1, r0
 8001776:	f8d0 029c 	ldr.w	r0, [r0, #668]	; 0x29c
 800177a:	4770      	bx	lr

0800177c <HAL_PCD_EP_Transmit>:
 800177c:	b538      	push	{r3, r4, r5, lr}
 800177e:	f001 050f 	and.w	r5, r1, #15
 8001782:	2424      	movs	r4, #36	; 0x24
 8001784:	fb04 0105 	mla	r1, r4, r5, r0
 8001788:	fb04 0405 	mla	r4, r4, r5, r0
 800178c:	313c      	adds	r1, #60	; 0x3c
 800178e:	6563      	str	r3, [r4, #84]	; 0x54
 8001790:	2300      	movs	r3, #0
 8001792:	65e3      	str	r3, [r4, #92]	; 0x5c
 8001794:	2301      	movs	r3, #1
 8001796:	64e2      	str	r2, [r4, #76]	; 0x4c
 8001798:	f884 303d 	strb.w	r3, [r4, #61]	; 0x3d
 800179c:	f884 503c 	strb.w	r5, [r4, #60]	; 0x3c
 80017a0:	6903      	ldr	r3, [r0, #16]
 80017a2:	6800      	ldr	r0, [r0, #0]
 80017a4:	2b01      	cmp	r3, #1
 80017a6:	bf08      	it	eq
 80017a8:	6522      	streq	r2, [r4, #80]	; 0x50
 80017aa:	b2da      	uxtb	r2, r3
 80017ac:	b91d      	cbnz	r5, 80017b6 <HAL_PCD_EP_Transmit+0x3a>
 80017ae:	f001 faed 	bl	8002d8c <USB_EP0StartXfer>
 80017b2:	2000      	movs	r0, #0
 80017b4:	bd38      	pop	{r3, r4, r5, pc}
 80017b6:	f001 fbbb 	bl	8002f30 <USB_EPStartXfer>
 80017ba:	e7fa      	b.n	80017b2 <HAL_PCD_EP_Transmit+0x36>

080017bc <HAL_PCD_EP_SetStall>:
 80017bc:	b538      	push	{r3, r4, r5, lr}
 80017be:	6843      	ldr	r3, [r0, #4]
 80017c0:	f001 050f 	and.w	r5, r1, #15
 80017c4:	429d      	cmp	r5, r3
 80017c6:	4604      	mov	r4, r0
 80017c8:	d82e      	bhi.n	8001828 <HAL_PCD_EP_SetStall+0x6c>
 80017ca:	f011 0f80 	tst.w	r1, #128	; 0x80
 80017ce:	f04f 0224 	mov.w	r2, #36	; 0x24
 80017d2:	d01f      	beq.n	8001814 <HAL_PCD_EP_SetStall+0x58>
 80017d4:	fb02 0305 	mla	r3, r2, r5, r0
 80017d8:	fb02 0205 	mla	r2, r2, r5, r0
 80017dc:	2101      	movs	r1, #1
 80017de:	333c      	adds	r3, #60	; 0x3c
 80017e0:	f882 103d 	strb.w	r1, [r2, #61]	; 0x3d
 80017e4:	2201      	movs	r2, #1
 80017e6:	709a      	strb	r2, [r3, #2]
 80017e8:	701d      	strb	r5, [r3, #0]
 80017ea:	f894 14bc 	ldrb.w	r1, [r4, #1212]	; 0x4bc
 80017ee:	4291      	cmp	r1, r2
 80017f0:	d01c      	beq.n	800182c <HAL_PCD_EP_SetStall+0x70>
 80017f2:	6820      	ldr	r0, [r4, #0]
 80017f4:	f884 24bc 	strb.w	r2, [r4, #1212]	; 0x4bc
 80017f8:	4619      	mov	r1, r3
 80017fa:	f001 fca3 	bl	8003144 <USB_EPSetStall>
 80017fe:	b92d      	cbnz	r5, 800180c <HAL_PCD_EP_SetStall+0x50>
 8001800:	7c21      	ldrb	r1, [r4, #16]
 8001802:	6820      	ldr	r0, [r4, #0]
 8001804:	f204 42c4 	addw	r2, r4, #1220	; 0x4c4
 8001808:	f001 fd5e 	bl	80032c8 <USB_EP0_OutStart>
 800180c:	2000      	movs	r0, #0
 800180e:	f884 04bc 	strb.w	r0, [r4, #1212]	; 0x4bc
 8001812:	bd38      	pop	{r3, r4, r5, pc}
 8001814:	fb02 0301 	mla	r3, r2, r1, r0
 8001818:	fb02 0101 	mla	r1, r2, r1, r0
 800181c:	2200      	movs	r2, #0
 800181e:	f503 731f 	add.w	r3, r3, #636	; 0x27c
 8001822:	f881 227d 	strb.w	r2, [r1, #637]	; 0x27d
 8001826:	e7dd      	b.n	80017e4 <HAL_PCD_EP_SetStall+0x28>
 8001828:	2001      	movs	r0, #1
 800182a:	e7f2      	b.n	8001812 <HAL_PCD_EP_SetStall+0x56>
 800182c:	2002      	movs	r0, #2
 800182e:	e7f0      	b.n	8001812 <HAL_PCD_EP_SetStall+0x56>

08001830 <HAL_PCD_EP_ClrStall>:
 8001830:	b538      	push	{r3, r4, r5, lr}
 8001832:	6843      	ldr	r3, [r0, #4]
 8001834:	f001 020f 	and.w	r2, r1, #15
 8001838:	429a      	cmp	r2, r3
 800183a:	4604      	mov	r4, r0
 800183c:	d82a      	bhi.n	8001894 <HAL_PCD_EP_ClrStall+0x64>
 800183e:	eb02 03c2 	add.w	r3, r2, r2, lsl #3
 8001842:	f011 0f80 	tst.w	r1, #128	; 0x80
 8001846:	ea4f 0383 	mov.w	r3, r3, lsl #2
 800184a:	f04f 0024 	mov.w	r0, #36	; 0x24
 800184e:	d018      	beq.n	8001882 <HAL_PCD_EP_ClrStall+0x52>
 8001850:	fb00 4002 	mla	r0, r0, r2, r4
 8001854:	f103 013c 	add.w	r1, r3, #60	; 0x3c
 8001858:	2301      	movs	r3, #1
 800185a:	4421      	add	r1, r4
 800185c:	f880 303d 	strb.w	r3, [r0, #61]	; 0x3d
 8001860:	2500      	movs	r5, #0
 8001862:	708d      	strb	r5, [r1, #2]
 8001864:	700a      	strb	r2, [r1, #0]
 8001866:	f894 34bc 	ldrb.w	r3, [r4, #1212]	; 0x4bc
 800186a:	2b01      	cmp	r3, #1
 800186c:	d014      	beq.n	8001898 <HAL_PCD_EP_ClrStall+0x68>
 800186e:	2301      	movs	r3, #1
 8001870:	6820      	ldr	r0, [r4, #0]
 8001872:	f884 34bc 	strb.w	r3, [r4, #1212]	; 0x4bc
 8001876:	f001 fc90 	bl	800319a <USB_EPClearStall>
 800187a:	f884 54bc 	strb.w	r5, [r4, #1212]	; 0x4bc
 800187e:	4628      	mov	r0, r5
 8001880:	bd38      	pop	{r3, r4, r5, pc}
 8001882:	fb00 4002 	mla	r0, r0, r2, r4
 8001886:	f503 711f 	add.w	r1, r3, #636	; 0x27c
 800188a:	2300      	movs	r3, #0
 800188c:	4421      	add	r1, r4
 800188e:	f880 327d 	strb.w	r3, [r0, #637]	; 0x27d
 8001892:	e7e5      	b.n	8001860 <HAL_PCD_EP_ClrStall+0x30>
 8001894:	2001      	movs	r0, #1
 8001896:	e7f3      	b.n	8001880 <HAL_PCD_EP_ClrStall+0x50>
 8001898:	2002      	movs	r0, #2
 800189a:	e7f1      	b.n	8001880 <HAL_PCD_EP_ClrStall+0x50>

0800189c <HAL_PCD_EP_Abort>:
 800189c:	f001 030f 	and.w	r3, r1, #15
 80018a0:	eb03 03c3 	add.w	r3, r3, r3, lsl #3
 80018a4:	060a      	lsls	r2, r1, #24
 80018a6:	ea4f 0383 	mov.w	r3, r3, lsl #2
 80018aa:	bf4c      	ite	mi
 80018ac:	f103 013c 	addmi.w	r1, r3, #60	; 0x3c
 80018b0:	f503 711f 	addpl.w	r1, r3, #636	; 0x27c
 80018b4:	4401      	add	r1, r0
 80018b6:	6800      	ldr	r0, [r0, #0]
 80018b8:	f001 bae4 	b.w	8002e84 <USB_EPStopXfer>

080018bc <HAL_PCD_IRQHandler>:
 80018bc:	e92d 4ff0 	stmdb	sp!, {r4, r5, r6, r7, r8, r9, sl, fp, lr}
 80018c0:	6806      	ldr	r6, [r0, #0]
 80018c2:	b089      	sub	sp, #36	; 0x24
 80018c4:	4604      	mov	r4, r0
 80018c6:	4630      	mov	r0, r6
 80018c8:	f001 fcea 	bl	80032a0 <USB_GetMode>
 80018cc:	9003      	str	r0, [sp, #12]
 80018ce:	2800      	cmp	r0, #0
 80018d0:	f040 8171 	bne.w	8001bb6 <HAL_PCD_IRQHandler+0x2fa>
 80018d4:	6820      	ldr	r0, [r4, #0]
 80018d6:	f001 fcb5 	bl	8003244 <USB_ReadInterrupts>
 80018da:	2800      	cmp	r0, #0
 80018dc:	f000 816b 	beq.w	8001bb6 <HAL_PCD_IRQHandler+0x2fa>
 80018e0:	f8d6 3808 	ldr.w	r3, [r6, #2056]	; 0x808
 80018e4:	6820      	ldr	r0, [r4, #0]
 80018e6:	f3c3 230d 	ubfx	r3, r3, #8, #14
 80018ea:	f8c4 34fc 	str.w	r3, [r4, #1276]	; 0x4fc
 80018ee:	f001 fca9 	bl	8003244 <USB_ReadInterrupts>
 80018f2:	0787      	lsls	r7, r0, #30
 80018f4:	bf48      	it	mi
 80018f6:	6822      	ldrmi	r2, [r4, #0]
 80018f8:	6820      	ldr	r0, [r4, #0]
 80018fa:	bf42      	ittt	mi
 80018fc:	6953      	ldrmi	r3, [r2, #20]
 80018fe:	f003 0302 	andmi.w	r3, r3, #2
 8001902:	6153      	strmi	r3, [r2, #20]
 8001904:	f001 fc9e 	bl	8003244 <USB_ReadInterrupts>
 8001908:	06c0      	lsls	r0, r0, #27
 800190a:	f506 6500 	add.w	r5, r6, #2048	; 0x800
 800190e:	d52c      	bpl.n	800196a <HAL_PCD_IRQHandler+0xae>
 8001910:	6822      	ldr	r2, [r4, #0]
 8001912:	6993      	ldr	r3, [r2, #24]
 8001914:	f023 0310 	bic.w	r3, r3, #16
 8001918:	6193      	str	r3, [r2, #24]
 800191a:	f8d6 8020 	ldr.w	r8, [r6, #32]
 800191e:	f3c8 4343 	ubfx	r3, r8, #17, #4
 8001922:	2b02      	cmp	r3, #2
 8001924:	f008 070f 	and.w	r7, r8, #15
 8001928:	f040 8148 	bne.w	8001bbc <HAL_PCD_IRQHandler+0x300>
 800192c:	f647 73f0 	movw	r3, #32752	; 0x7ff0
 8001930:	ea18 0f03 	tst.w	r8, r3
 8001934:	d014      	beq.n	8001960 <HAL_PCD_IRQHandler+0xa4>
 8001936:	2324      	movs	r3, #36	; 0x24
 8001938:	fb03 4707 	mla	r7, r3, r7, r4
 800193c:	f3c8 190a 	ubfx	r9, r8, #4, #11
 8001940:	f8d7 128c 	ldr.w	r1, [r7, #652]	; 0x28c
 8001944:	464a      	mov	r2, r9
 8001946:	4630      	mov	r0, r6
 8001948:	f001 fbdc 	bl	8003104 <USB_ReadPacket>
 800194c:	f8d7 328c 	ldr.w	r3, [r7, #652]	; 0x28c
 8001950:	444b      	add	r3, r9
 8001952:	f8c7 328c 	str.w	r3, [r7, #652]	; 0x28c
 8001956:	f8d7 329c 	ldr.w	r3, [r7, #668]	; 0x29c
 800195a:	444b      	add	r3, r9
 800195c:	f8c7 329c 	str.w	r3, [r7, #668]	; 0x29c
 8001960:	6822      	ldr	r2, [r4, #0]
 8001962:	6993      	ldr	r3, [r2, #24]
 8001964:	f043 0310 	orr.w	r3, r3, #16
 8001968:	6193      	str	r3, [r2, #24]
 800196a:	6820      	ldr	r0, [r4, #0]
 800196c:	f001 fc6a 	bl	8003244 <USB_ReadInterrupts>
 8001970:	0301      	lsls	r1, r0, #12
 8001972:	f100 8135 	bmi.w	8001be0 <HAL_PCD_IRQHandler+0x324>
 8001976:	6820      	ldr	r0, [r4, #0]
 8001978:	f001 fc64 	bl	8003244 <USB_ReadInterrupts>
 800197c:	0342      	lsls	r2, r0, #13
 800197e:	d50d      	bpl.n	800199c <HAL_PCD_IRQHandler+0xe0>
 8001980:	6820      	ldr	r0, [r4, #0]
 8001982:	f001 fc6b 	bl	800325c <USB_ReadDevAllInEpInterrupt>
 8001986:	4627      	mov	r7, r4
 8001988:	9004      	str	r0, [sp, #16]
 800198a:	f506 6a10 	add.w	sl, r6, #2304	; 0x900
 800198e:	f04f 0900 	mov.w	r9, #0
 8001992:	9b04      	ldr	r3, [sp, #16]
 8001994:	6820      	ldr	r0, [r4, #0]
 8001996:	2b00      	cmp	r3, #0
 8001998:	f040 81ea 	bne.w	8001d70 <HAL_PCD_IRQHandler+0x4b4>
 800199c:	6820      	ldr	r0, [r4, #0]
 800199e:	f001 fc51 	bl	8003244 <USB_ReadInterrupts>
 80019a2:	2800      	cmp	r0, #0
 80019a4:	da13      	bge.n	80019ce <HAL_PCD_IRQHandler+0x112>
 80019a6:	686b      	ldr	r3, [r5, #4]
 80019a8:	f023 0301 	bic.w	r3, r3, #1
 80019ac:	606b      	str	r3, [r5, #4]
 80019ae:	f894 34f4 	ldrb.w	r3, [r4, #1268]	; 0x4f4
 80019b2:	2b01      	cmp	r3, #1
 80019b4:	f040 8285 	bne.w	8001ec2 <HAL_PCD_IRQHandler+0x606>
 80019b8:	2100      	movs	r1, #0
 80019ba:	f884 14f4 	strb.w	r1, [r4, #1268]	; 0x4f4
 80019be:	4620      	mov	r0, r4
 80019c0:	f002 fcc0 	bl	8004344 <HAL_PCDEx_LPM_Callback>
 80019c4:	6822      	ldr	r2, [r4, #0]
 80019c6:	6953      	ldr	r3, [r2, #20]
 80019c8:	f003 4300 	and.w	r3, r3, #2147483648	; 0x80000000
 80019cc:	6153      	str	r3, [r2, #20]
 80019ce:	6820      	ldr	r0, [r4, #0]
 80019d0:	f001 fc38 	bl	8003244 <USB_ReadInterrupts>
 80019d4:	0500      	lsls	r0, r0, #20
 80019d6:	d50a      	bpl.n	80019ee <HAL_PCD_IRQHandler+0x132>
 80019d8:	68ab      	ldr	r3, [r5, #8]
 80019da:	07d9      	lsls	r1, r3, #31
 80019dc:	d502      	bpl.n	80019e4 <HAL_PCD_IRQHandler+0x128>
 80019de:	4620      	mov	r0, r4
 80019e0:	f002 fc3c 	bl	800425c <HAL_PCD_SuspendCallback>
 80019e4:	6822      	ldr	r2, [r4, #0]
 80019e6:	6953      	ldr	r3, [r2, #20]
 80019e8:	f403 6300 	and.w	r3, r3, #2048	; 0x800
 80019ec:	6153      	str	r3, [r2, #20]
 80019ee:	6820      	ldr	r0, [r4, #0]
 80019f0:	f001 fc28 	bl	8003244 <USB_ReadInterrupts>
 80019f4:	0102      	lsls	r2, r0, #4
 80019f6:	d514      	bpl.n	8001a22 <HAL_PCD_IRQHandler+0x166>
 80019f8:	6823      	ldr	r3, [r4, #0]
 80019fa:	695a      	ldr	r2, [r3, #20]
 80019fc:	f002 6200 	and.w	r2, r2, #134217728	; 0x8000000
 8001a00:	615a      	str	r2, [r3, #20]
 8001a02:	f894 24f4 	ldrb.w	r2, [r4, #1268]	; 0x4f4
 8001a06:	2a00      	cmp	r2, #0
 8001a08:	f040 825f 	bne.w	8001eca <HAL_PCD_IRQHandler+0x60e>
 8001a0c:	2101      	movs	r1, #1
 8001a0e:	f884 14f4 	strb.w	r1, [r4, #1268]	; 0x4f4
 8001a12:	6d5b      	ldr	r3, [r3, #84]	; 0x54
 8001a14:	f3c3 0383 	ubfx	r3, r3, #2, #4
 8001a18:	f8c4 34f8 	str.w	r3, [r4, #1272]	; 0x4f8
 8001a1c:	4620      	mov	r0, r4
 8001a1e:	f002 fc91 	bl	8004344 <HAL_PCDEx_LPM_Callback>
 8001a22:	6820      	ldr	r0, [r4, #0]
 8001a24:	f001 fc0e 	bl	8003244 <USB_ReadInterrupts>
 8001a28:	04c3      	lsls	r3, r0, #19
 8001a2a:	d533      	bpl.n	8001a94 <HAL_PCD_IRQHandler+0x1d8>
 8001a2c:	686b      	ldr	r3, [r5, #4]
 8001a2e:	6820      	ldr	r0, [r4, #0]
 8001a30:	f023 0301 	bic.w	r3, r3, #1
 8001a34:	606b      	str	r3, [r5, #4]
 8001a36:	2110      	movs	r1, #16
 8001a38:	f001 f800 	bl	8002a3c <USB_FlushTxFifo>
 8001a3c:	f506 6310 	add.w	r3, r6, #2304	; 0x900
 8001a40:	f64f 317f 	movw	r1, #64383	; 0xfb7f
 8001a44:	6862      	ldr	r2, [r4, #4]
 8001a46:	9803      	ldr	r0, [sp, #12]
 8001a48:	4282      	cmp	r2, r0
 8001a4a:	f200 8247 	bhi.w	8001edc <HAL_PCD_IRQHandler+0x620>
 8001a4e:	69eb      	ldr	r3, [r5, #28]
 8001a50:	f043 1301 	orr.w	r3, r3, #65537	; 0x10001
 8001a54:	61eb      	str	r3, [r5, #28]
 8001a56:	6b23      	ldr	r3, [r4, #48]	; 0x30
 8001a58:	2b00      	cmp	r3, #0
 8001a5a:	f000 8257 	beq.w	8001f0c <HAL_PCD_IRQHandler+0x650>
 8001a5e:	f8d5 3084 	ldr.w	r3, [r5, #132]	; 0x84
 8001a62:	f043 030b 	orr.w	r3, r3, #11
 8001a66:	f8c5 3084 	str.w	r3, [r5, #132]	; 0x84
 8001a6a:	6c6b      	ldr	r3, [r5, #68]	; 0x44
 8001a6c:	f043 030b 	orr.w	r3, r3, #11
 8001a70:	646b      	str	r3, [r5, #68]	; 0x44
 8001a72:	f8d6 3800 	ldr.w	r3, [r6, #2048]	; 0x800
 8001a76:	7c21      	ldrb	r1, [r4, #16]
 8001a78:	6820      	ldr	r0, [r4, #0]
 8001a7a:	f423 63fe 	bic.w	r3, r3, #2032	; 0x7f0
 8001a7e:	f8c6 3800 	str.w	r3, [r6, #2048]	; 0x800
 8001a82:	f204 42c4 	addw	r2, r4, #1220	; 0x4c4
 8001a86:	f001 fc1f 	bl	80032c8 <USB_EP0_OutStart>
 8001a8a:	6822      	ldr	r2, [r4, #0]
 8001a8c:	6953      	ldr	r3, [r2, #20]
 8001a8e:	f403 5380 	and.w	r3, r3, #4096	; 0x1000
 8001a92:	6153      	str	r3, [r2, #20]
 8001a94:	6820      	ldr	r0, [r4, #0]
 8001a96:	f001 fbd5 	bl	8003244 <USB_ReadInterrupts>
 8001a9a:	0487      	lsls	r7, r0, #18
 8001a9c:	d516      	bpl.n	8001acc <HAL_PCD_IRQHandler+0x210>
 8001a9e:	6820      	ldr	r0, [r4, #0]
 8001aa0:	f001 fc02 	bl	80032a8 <USB_ActivateSetup>
 8001aa4:	6820      	ldr	r0, [r4, #0]
 8001aa6:	f001 f8d1 	bl	8002c4c <USB_GetDevSpeed>
 8001aaa:	60e0      	str	r0, [r4, #12]
 8001aac:	6827      	ldr	r7, [r4, #0]
 8001aae:	f000 fb6b 	bl	8002188 <HAL_RCC_GetHCLKFreq>
 8001ab2:	7b22      	ldrb	r2, [r4, #12]
 8001ab4:	4601      	mov	r1, r0
 8001ab6:	4638      	mov	r0, r7
 8001ab8:	f000 ff14 	bl	80028e4 <USB_SetTurnaroundTime>
 8001abc:	4620      	mov	r0, r4
 8001abe:	f002 fbba 	bl	8004236 <HAL_PCD_ResetCallback>
 8001ac2:	6822      	ldr	r2, [r4, #0]
 8001ac4:	6953      	ldr	r3, [r2, #20]
 8001ac6:	f403 5300 	and.w	r3, r3, #8192	; 0x2000
 8001aca:	6153      	str	r3, [r2, #20]
 8001acc:	6820      	ldr	r0, [r4, #0]
 8001ace:	f001 fbb9 	bl	8003244 <USB_ReadInterrupts>
 8001ad2:	0700      	lsls	r0, r0, #28
 8001ad4:	d507      	bpl.n	8001ae6 <HAL_PCD_IRQHandler+0x22a>
 8001ad6:	4620      	mov	r0, r4
 8001ad8:	f002 fba9 	bl	800422e <HAL_PCD_SOFCallback>
 8001adc:	6822      	ldr	r2, [r4, #0]
 8001ade:	6953      	ldr	r3, [r2, #20]
 8001ae0:	f003 0308 	and.w	r3, r3, #8
 8001ae4:	6153      	str	r3, [r2, #20]
 8001ae6:	6820      	ldr	r0, [r4, #0]
 8001ae8:	f001 fbac 	bl	8003244 <USB_ReadInterrupts>
 8001aec:	0601      	lsls	r1, r0, #24
 8001aee:	f100 8218 	bmi.w	8001f22 <HAL_PCD_IRQHandler+0x666>
 8001af2:	6820      	ldr	r0, [r4, #0]
 8001af4:	f001 fba6 	bl	8003244 <USB_ReadInterrupts>
 8001af8:	02c2      	lsls	r2, r0, #11
 8001afa:	d50c      	bpl.n	8001b16 <HAL_PCD_IRQHandler+0x25a>
 8001afc:	46a0      	mov	r8, r4
 8001afe:	f506 6912 	add.w	r9, r6, #2336	; 0x920
 8001b02:	2701      	movs	r7, #1
 8001b04:	6863      	ldr	r3, [r4, #4]
 8001b06:	42bb      	cmp	r3, r7
 8001b08:	f200 8224 	bhi.w	8001f54 <HAL_PCD_IRQHandler+0x698>
 8001b0c:	6822      	ldr	r2, [r4, #0]
 8001b0e:	6953      	ldr	r3, [r2, #20]
 8001b10:	f403 1380 	and.w	r3, r3, #1048576	; 0x100000
 8001b14:	6153      	str	r3, [r2, #20]
 8001b16:	6820      	ldr	r0, [r4, #0]
 8001b18:	f001 fb94 	bl	8003244 <USB_ReadInterrupts>
 8001b1c:	0283      	lsls	r3, r0, #10
 8001b1e:	d52d      	bpl.n	8001b7c <HAL_PCD_IRQHandler+0x2c0>
 8001b20:	f8d4 e004 	ldr.w	lr, [r4, #4]
 8001b24:	4623      	mov	r3, r4
 8001b26:	f506 6032 	add.w	r0, r6, #2848	; 0xb20
 8001b2a:	2101      	movs	r1, #1
 8001b2c:	458e      	cmp	lr, r1
 8001b2e:	d920      	bls.n	8001b72 <HAL_PCD_IRQHandler+0x2b6>
 8001b30:	f893 c2a4 	ldrb.w	ip, [r3, #676]	; 0x2a4
 8001b34:	6802      	ldr	r2, [r0, #0]
 8001b36:	f1bc 0f01 	cmp.w	ip, #1
 8001b3a:	f040 8221 	bne.w	8001f80 <HAL_PCD_IRQHandler+0x6c4>
 8001b3e:	2a00      	cmp	r2, #0
 8001b40:	f280 821e 	bge.w	8001f80 <HAL_PCD_IRQHandler+0x6c4>
 8001b44:	f8d4 74fc 	ldr.w	r7, [r4, #1276]	; 0x4fc
 8001b48:	f402 3280 	and.w	r2, r2, #65536	; 0x10000
 8001b4c:	f007 0701 	and.w	r7, r7, #1
 8001b50:	42ba      	cmp	r2, r7
 8001b52:	f040 8215 	bne.w	8001f80 <HAL_PCD_IRQHandler+0x6c4>
 8001b56:	f883 c2a3 	strb.w	ip, [r3, #675]	; 0x2a3
 8001b5a:	69b2      	ldr	r2, [r6, #24]
 8001b5c:	f042 0280 	orr.w	r2, r2, #128	; 0x80
 8001b60:	61b2      	str	r2, [r6, #24]
 8001b62:	6972      	ldr	r2, [r6, #20]
 8001b64:	0617      	lsls	r7, r2, #24
 8001b66:	f100 820b 	bmi.w	8001f80 <HAL_PCD_IRQHandler+0x6c4>
 8001b6a:	686b      	ldr	r3, [r5, #4]
 8001b6c:	f443 7300 	orr.w	r3, r3, #512	; 0x200
 8001b70:	606b      	str	r3, [r5, #4]
 8001b72:	6822      	ldr	r2, [r4, #0]
 8001b74:	6953      	ldr	r3, [r2, #20]
 8001b76:	f403 1300 	and.w	r3, r3, #2097152	; 0x200000
 8001b7a:	6153      	str	r3, [r2, #20]
 8001b7c:	6820      	ldr	r0, [r4, #0]
 8001b7e:	f001 fb61 	bl	8003244 <USB_ReadInterrupts>
 8001b82:	0041      	lsls	r1, r0, #1
 8001b84:	d507      	bpl.n	8001b96 <HAL_PCD_IRQHandler+0x2da>
 8001b86:	4620      	mov	r0, r4
 8001b88:	f002 fb8c 	bl	80042a4 <HAL_PCD_ConnectCallback>
 8001b8c:	6822      	ldr	r2, [r4, #0]
 8001b8e:	6953      	ldr	r3, [r2, #20]
 8001b90:	f003 4380 	and.w	r3, r3, #1073741824	; 0x40000000
 8001b94:	6153      	str	r3, [r2, #20]
 8001b96:	6820      	ldr	r0, [r4, #0]
 8001b98:	f001 fb54 	bl	8003244 <USB_ReadInterrupts>
 8001b9c:	0742      	lsls	r2, r0, #29
 8001b9e:	d50a      	bpl.n	8001bb6 <HAL_PCD_IRQHandler+0x2fa>
 8001ba0:	6823      	ldr	r3, [r4, #0]
 8001ba2:	685d      	ldr	r5, [r3, #4]
 8001ba4:	076b      	lsls	r3, r5, #29
 8001ba6:	d502      	bpl.n	8001bae <HAL_PCD_IRQHandler+0x2f2>
 8001ba8:	4620      	mov	r0, r4
 8001baa:	f002 fb7f 	bl	80042ac <HAL_PCD_DisconnectCallback>
 8001bae:	6822      	ldr	r2, [r4, #0]
 8001bb0:	6853      	ldr	r3, [r2, #4]
 8001bb2:	432b      	orrs	r3, r5
 8001bb4:	6053      	str	r3, [r2, #4]
 8001bb6:	b009      	add	sp, #36	; 0x24
 8001bb8:	e8bd 8ff0 	ldmia.w	sp!, {r4, r5, r6, r7, r8, r9, sl, fp, pc}
 8001bbc:	2b06      	cmp	r3, #6
 8001bbe:	f47f aecf 	bne.w	8001960 <HAL_PCD_IRQHandler+0xa4>
 8001bc2:	2208      	movs	r2, #8
 8001bc4:	f204 41c4 	addw	r1, r4, #1220	; 0x4c4
 8001bc8:	4630      	mov	r0, r6
 8001bca:	f001 fa9b 	bl	8003104 <USB_ReadPacket>
 8001bce:	2324      	movs	r3, #36	; 0x24
 8001bd0:	fb03 4707 	mla	r7, r3, r7, r4
 8001bd4:	f3c8 180a 	ubfx	r8, r8, #4, #11
 8001bd8:	f8d7 329c 	ldr.w	r3, [r7, #668]	; 0x29c
 8001bdc:	4443      	add	r3, r8
 8001bde:	e6bd      	b.n	800195c <HAL_PCD_IRQHandler+0xa0>
 8001be0:	6820      	ldr	r0, [r4, #0]
 8001be2:	f001 fb33 	bl	800324c <USB_ReadDevAllOutEpInterrupt>
 8001be6:	f506 6830 	add.w	r8, r6, #2816	; 0xb00
 8001bea:	9004      	str	r0, [sp, #16]
 8001bec:	46a2      	mov	sl, r4
 8001bee:	2700      	movs	r7, #0
 8001bf0:	9b04      	ldr	r3, [sp, #16]
 8001bf2:	6820      	ldr	r0, [r4, #0]
 8001bf4:	2b00      	cmp	r3, #0
 8001bf6:	f43f aebe 	beq.w	8001976 <HAL_PCD_IRQHandler+0xba>
 8001bfa:	9b04      	ldr	r3, [sp, #16]
 8001bfc:	07db      	lsls	r3, r3, #31
 8001bfe:	d575      	bpl.n	8001cec <HAL_PCD_IRQHandler+0x430>
 8001c00:	fa5f fb87 	uxtb.w	fp, r7
 8001c04:	4659      	mov	r1, fp
 8001c06:	f001 fb31 	bl	800326c <USB_ReadDevOutEPInterrupt>
 8001c0a:	f010 0f01 	tst.w	r0, #1
 8001c0e:	4681      	mov	r9, r0
 8001c10:	d01c      	beq.n	8001c4c <HAL_PCD_IRQHandler+0x390>
 8001c12:	6820      	ldr	r0, [r4, #0]
 8001c14:	6921      	ldr	r1, [r4, #16]
 8001c16:	2301      	movs	r3, #1
 8001c18:	f8c8 3008 	str.w	r3, [r8, #8]
 8001c1c:	f500 6330 	add.w	r3, r0, #2816	; 0xb00
 8001c20:	eb03 1347 	add.w	r3, r3, r7, lsl #5
 8001c24:	2901      	cmp	r1, #1
 8001c26:	f8d0 c040 	ldr.w	ip, [r0, #64]	; 0x40
 8001c2a:	689a      	ldr	r2, [r3, #8]
 8001c2c:	f040 808b 	bne.w	8001d46 <HAL_PCD_IRQHandler+0x48a>
 8001c30:	0711      	lsls	r1, r2, #28
 8001c32:	d507      	bpl.n	8001c44 <HAL_PCD_IRQHandler+0x388>
 8001c34:	49a7      	ldr	r1, [pc, #668]	; (8001ed4 <HAL_PCD_IRQHandler+0x618>)
 8001c36:	458c      	cmp	ip, r1
 8001c38:	d908      	bls.n	8001c4c <HAL_PCD_IRQHandler+0x390>
 8001c3a:	0410      	lsls	r0, r2, #16
 8001c3c:	d506      	bpl.n	8001c4c <HAL_PCD_IRQHandler+0x390>
 8001c3e:	f44f 4200 	mov.w	r2, #32768	; 0x8000
 8001c42:	e002      	b.n	8001c4a <HAL_PCD_IRQHandler+0x38e>
 8001c44:	0691      	lsls	r1, r2, #26
 8001c46:	d55a      	bpl.n	8001cfe <HAL_PCD_IRQHandler+0x442>
 8001c48:	2220      	movs	r2, #32
 8001c4a:	609a      	str	r2, [r3, #8]
 8001c4c:	f019 0f08 	tst.w	r9, #8
 8001c50:	d021      	beq.n	8001c96 <HAL_PCD_IRQHandler+0x3da>
 8001c52:	2308      	movs	r3, #8
 8001c54:	f8c8 3008 	str.w	r3, [r8, #8]
 8001c58:	6823      	ldr	r3, [r4, #0]
 8001c5a:	489e      	ldr	r0, [pc, #632]	; (8001ed4 <HAL_PCD_IRQHandler+0x618>)
 8001c5c:	6c1a      	ldr	r2, [r3, #64]	; 0x40
 8001c5e:	f503 6330 	add.w	r3, r3, #2816	; 0xb00
 8001c62:	eb03 1347 	add.w	r3, r3, r7, lsl #5
 8001c66:	4282      	cmp	r2, r0
 8001c68:	6899      	ldr	r1, [r3, #8]
 8001c6a:	d904      	bls.n	8001c76 <HAL_PCD_IRQHandler+0x3ba>
 8001c6c:	0409      	lsls	r1, r1, #16
 8001c6e:	bf44      	itt	mi
 8001c70:	f44f 4100 	movmi.w	r1, #32768	; 0x8000
 8001c74:	6099      	strmi	r1, [r3, #8]
 8001c76:	4620      	mov	r0, r4
 8001c78:	9205      	str	r2, [sp, #20]
 8001c7a:	f002 fac1 	bl	8004200 <HAL_PCD_SetupStageCallback>
 8001c7e:	4b95      	ldr	r3, [pc, #596]	; (8001ed4 <HAL_PCD_IRQHandler+0x618>)
 8001c80:	9a05      	ldr	r2, [sp, #20]
 8001c82:	429a      	cmp	r2, r3
 8001c84:	d907      	bls.n	8001c96 <HAL_PCD_IRQHandler+0x3da>
 8001c86:	6921      	ldr	r1, [r4, #16]
 8001c88:	2901      	cmp	r1, #1
 8001c8a:	d104      	bne.n	8001c96 <HAL_PCD_IRQHandler+0x3da>
 8001c8c:	6820      	ldr	r0, [r4, #0]
 8001c8e:	f204 42c4 	addw	r2, r4, #1220	; 0x4c4
 8001c92:	f001 fb19 	bl	80032c8 <USB_EP0_OutStart>
 8001c96:	f019 0f10 	tst.w	r9, #16
 8001c9a:	bf1c      	itt	ne
 8001c9c:	2310      	movne	r3, #16
 8001c9e:	f8c8 3008 	strne.w	r3, [r8, #8]
 8001ca2:	f019 0f02 	tst.w	r9, #2
 8001ca6:	d014      	beq.n	8001cd2 <HAL_PCD_IRQHandler+0x416>
 8001ca8:	6973      	ldr	r3, [r6, #20]
 8001caa:	061a      	lsls	r2, r3, #24
 8001cac:	bf42      	ittt	mi
 8001cae:	686b      	ldrmi	r3, [r5, #4]
 8001cb0:	f443 6380 	orrmi.w	r3, r3, #1024	; 0x400
 8001cb4:	606b      	strmi	r3, [r5, #4]
 8001cb6:	f89a 327f 	ldrb.w	r3, [sl, #639]	; 0x27f
 8001cba:	2b01      	cmp	r3, #1
 8001cbc:	d106      	bne.n	8001ccc <HAL_PCD_IRQHandler+0x410>
 8001cbe:	2300      	movs	r3, #0
 8001cc0:	f88a 327f 	strb.w	r3, [sl, #639]	; 0x27f
 8001cc4:	4659      	mov	r1, fp
 8001cc6:	4620      	mov	r0, r4
 8001cc8:	f002 fae4 	bl	8004294 <HAL_PCD_ISOOUTIncompleteCallback>
 8001ccc:	2302      	movs	r3, #2
 8001cce:	f8c8 3008 	str.w	r3, [r8, #8]
 8001cd2:	f019 0f20 	tst.w	r9, #32
 8001cd6:	bf1c      	itt	ne
 8001cd8:	2320      	movne	r3, #32
 8001cda:	f8c8 3008 	strne.w	r3, [r8, #8]
 8001cde:	f419 5f00 	tst.w	r9, #8192	; 0x2000
 8001ce2:	bf1c      	itt	ne
 8001ce4:	f44f 5300 	movne.w	r3, #8192	; 0x2000
 8001ce8:	f8c8 3008 	strne.w	r3, [r8, #8]
 8001cec:	9b04      	ldr	r3, [sp, #16]
 8001cee:	085b      	lsrs	r3, r3, #1
 8001cf0:	3701      	adds	r7, #1
 8001cf2:	9304      	str	r3, [sp, #16]
 8001cf4:	f108 0820 	add.w	r8, r8, #32
 8001cf8:	f10a 0a24 	add.w	sl, sl, #36	; 0x24
 8001cfc:	e778      	b.n	8001bf0 <HAL_PCD_IRQHandler+0x334>
 8001cfe:	f012 0f28 	tst.w	r2, #40	; 0x28
 8001d02:	d1a3      	bne.n	8001c4c <HAL_PCD_IRQHandler+0x390>
 8001d04:	4973      	ldr	r1, [pc, #460]	; (8001ed4 <HAL_PCD_IRQHandler+0x618>)
 8001d06:	458c      	cmp	ip, r1
 8001d08:	d901      	bls.n	8001d0e <HAL_PCD_IRQHandler+0x452>
 8001d0a:	0412      	lsls	r2, r2, #16
 8001d0c:	d497      	bmi.n	8001c3e <HAL_PCD_IRQHandler+0x382>
 8001d0e:	691a      	ldr	r2, [r3, #16]
 8001d10:	f8da 3298 	ldr.w	r3, [sl, #664]	; 0x298
 8001d14:	f3c2 0212 	ubfx	r2, r2, #0, #19
 8001d18:	1a9b      	subs	r3, r3, r2
 8001d1a:	f8ca 329c 	str.w	r3, [sl, #668]	; 0x29c
 8001d1e:	b96f      	cbnz	r7, 8001d3c <HAL_PCD_IRQHandler+0x480>
 8001d20:	f8d4 2294 	ldr.w	r2, [r4, #660]	; 0x294
 8001d24:	b92a      	cbnz	r2, 8001d32 <HAL_PCD_IRQHandler+0x476>
 8001d26:	f204 42c4 	addw	r2, r4, #1220	; 0x4c4
 8001d2a:	2101      	movs	r1, #1
 8001d2c:	f001 facc 	bl	80032c8 <USB_EP0_OutStart>
 8001d30:	e004      	b.n	8001d3c <HAL_PCD_IRQHandler+0x480>
 8001d32:	f8d4 228c 	ldr.w	r2, [r4, #652]	; 0x28c
 8001d36:	441a      	add	r2, r3
 8001d38:	f8c4 228c 	str.w	r2, [r4, #652]	; 0x28c
 8001d3c:	4659      	mov	r1, fp
 8001d3e:	4620      	mov	r0, r4
 8001d40:	f002 fa64 	bl	800420c <HAL_PCD_DataOutStageCallback>
 8001d44:	e782      	b.n	8001c4c <HAL_PCD_IRQHandler+0x390>
 8001d46:	4964      	ldr	r1, [pc, #400]	; (8001ed8 <HAL_PCD_IRQHandler+0x61c>)
 8001d48:	458c      	cmp	ip, r1
 8001d4a:	d107      	bne.n	8001d5c <HAL_PCD_IRQHandler+0x4a0>
 8001d4c:	0411      	lsls	r1, r2, #16
 8001d4e:	f53f af76 	bmi.w	8001c3e <HAL_PCD_IRQHandler+0x382>
 8001d52:	0690      	lsls	r0, r2, #26
 8001d54:	d5f2      	bpl.n	8001d3c <HAL_PCD_IRQHandler+0x480>
 8001d56:	2220      	movs	r2, #32
 8001d58:	609a      	str	r2, [r3, #8]
 8001d5a:	e7ef      	b.n	8001d3c <HAL_PCD_IRQHandler+0x480>
 8001d5c:	2f00      	cmp	r7, #0
 8001d5e:	d1ed      	bne.n	8001d3c <HAL_PCD_IRQHandler+0x480>
 8001d60:	f8d4 3294 	ldr.w	r3, [r4, #660]	; 0x294
 8001d64:	2b00      	cmp	r3, #0
 8001d66:	d1e9      	bne.n	8001d3c <HAL_PCD_IRQHandler+0x480>
 8001d68:	f204 42c4 	addw	r2, r4, #1220	; 0x4c4
 8001d6c:	4639      	mov	r1, r7
 8001d6e:	e7dd      	b.n	8001d2c <HAL_PCD_IRQHandler+0x470>
 8001d70:	9b04      	ldr	r3, [sp, #16]
 8001d72:	07db      	lsls	r3, r3, #31
 8001d74:	f140 809c 	bpl.w	8001eb0 <HAL_PCD_IRQHandler+0x5f4>
 8001d78:	fa5f fb89 	uxtb.w	fp, r9
 8001d7c:	4659      	mov	r1, fp
 8001d7e:	f001 fa7e 	bl	800327e <USB_ReadDevInEPInterrupt>
 8001d82:	f010 0f01 	tst.w	r0, #1
 8001d86:	4680      	mov	r8, r0
 8001d88:	d020      	beq.n	8001dcc <HAL_PCD_IRQHandler+0x510>
 8001d8a:	2101      	movs	r1, #1
 8001d8c:	6b6b      	ldr	r3, [r5, #52]	; 0x34
 8001d8e:	f009 020f 	and.w	r2, r9, #15
 8001d92:	fa01 f202 	lsl.w	r2, r1, r2
 8001d96:	ea23 0302 	bic.w	r3, r3, r2
 8001d9a:	636b      	str	r3, [r5, #52]	; 0x34
 8001d9c:	460b      	mov	r3, r1
 8001d9e:	f8ca 1008 	str.w	r1, [sl, #8]
 8001da2:	6921      	ldr	r1, [r4, #16]
 8001da4:	4299      	cmp	r1, r3
 8001da6:	d10d      	bne.n	8001dc4 <HAL_PCD_IRQHandler+0x508>
 8001da8:	e9d7 2312 	ldrd	r2, r3, [r7, #72]	; 0x48
 8001dac:	4413      	add	r3, r2
 8001dae:	64fb      	str	r3, [r7, #76]	; 0x4c
 8001db0:	f1b9 0f00 	cmp.w	r9, #0
 8001db4:	d106      	bne.n	8001dc4 <HAL_PCD_IRQHandler+0x508>
 8001db6:	6d63      	ldr	r3, [r4, #84]	; 0x54
 8001db8:	b923      	cbnz	r3, 8001dc4 <HAL_PCD_IRQHandler+0x508>
 8001dba:	6820      	ldr	r0, [r4, #0]
 8001dbc:	f204 42c4 	addw	r2, r4, #1220	; 0x4c4
 8001dc0:	f001 fa82 	bl	80032c8 <USB_EP0_OutStart>
 8001dc4:	4659      	mov	r1, fp
 8001dc6:	4620      	mov	r0, r4
 8001dc8:	f002 fa29 	bl	800421e <HAL_PCD_DataInStageCallback>
 8001dcc:	f018 0f08 	tst.w	r8, #8
 8001dd0:	bf1c      	itt	ne
 8001dd2:	2308      	movne	r3, #8
 8001dd4:	f8ca 3008 	strne.w	r3, [sl, #8]
 8001dd8:	f018 0f10 	tst.w	r8, #16
 8001ddc:	bf1c      	itt	ne
 8001dde:	2310      	movne	r3, #16
 8001de0:	f8ca 3008 	strne.w	r3, [sl, #8]
 8001de4:	f018 0f40 	tst.w	r8, #64	; 0x40
 8001de8:	bf1c      	itt	ne
 8001dea:	2340      	movne	r3, #64	; 0x40
 8001dec:	f8ca 3008 	strne.w	r3, [sl, #8]
 8001df0:	f018 0f02 	tst.w	r8, #2
 8001df4:	d012      	beq.n	8001e1c <HAL_PCD_IRQHandler+0x560>
 8001df6:	4649      	mov	r1, r9
 8001df8:	4630      	mov	r0, r6
 8001dfa:	f000 fe1f 	bl	8002a3c <USB_FlushTxFifo>
 8001dfe:	f897 303f 	ldrb.w	r3, [r7, #63]	; 0x3f
 8001e02:	2b01      	cmp	r3, #1
 8001e04:	d107      	bne.n	8001e16 <HAL_PCD_IRQHandler+0x55a>
 8001e06:	f04f 0300 	mov.w	r3, #0
 8001e0a:	f887 303f 	strb.w	r3, [r7, #63]	; 0x3f
 8001e0e:	4659      	mov	r1, fp
 8001e10:	4620      	mov	r0, r4
 8001e12:	f002 fa43 	bl	800429c <HAL_PCD_ISOINIncompleteCallback>
 8001e16:	2302      	movs	r3, #2
 8001e18:	f8ca 3008 	str.w	r3, [sl, #8]
 8001e1c:	6823      	ldr	r3, [r4, #0]
 8001e1e:	9305      	str	r3, [sp, #20]
 8001e20:	f018 0f80 	tst.w	r8, #128	; 0x80
 8001e24:	d044      	beq.n	8001eb0 <HAL_PCD_IRQHandler+0x5f4>
 8001e26:	6dfa      	ldr	r2, [r7, #92]	; 0x5c
 8001e28:	6d7b      	ldr	r3, [r7, #84]	; 0x54
 8001e2a:	429a      	cmp	r2, r3
 8001e2c:	d840      	bhi.n	8001eb0 <HAL_PCD_IRQHandler+0x5f4>
 8001e2e:	1a9b      	subs	r3, r3, r2
 8001e30:	6cba      	ldr	r2, [r7, #72]	; 0x48
 8001e32:	4293      	cmp	r3, r2
 8001e34:	bf28      	it	cs
 8001e36:	4613      	movcs	r3, r2
 8001e38:	3303      	adds	r3, #3
 8001e3a:	089b      	lsrs	r3, r3, #2
 8001e3c:	9306      	str	r3, [sp, #24]
 8001e3e:	9b05      	ldr	r3, [sp, #20]
 8001e40:	f503 6310 	add.w	r3, r3, #2304	; 0x900
 8001e44:	eb03 1349 	add.w	r3, r3, r9, lsl #5
 8001e48:	9307      	str	r3, [sp, #28]
 8001e4a:	9b07      	ldr	r3, [sp, #28]
 8001e4c:	9806      	ldr	r0, [sp, #24]
 8001e4e:	6999      	ldr	r1, [r3, #24]
 8001e50:	6dfa      	ldr	r2, [r7, #92]	; 0x5c
 8001e52:	6d7b      	ldr	r3, [r7, #84]	; 0x54
 8001e54:	b289      	uxth	r1, r1
 8001e56:	4281      	cmp	r1, r0
 8001e58:	d328      	bcc.n	8001eac <HAL_PCD_IRQHandler+0x5f0>
 8001e5a:	429a      	cmp	r2, r3
 8001e5c:	d30c      	bcc.n	8001e78 <HAL_PCD_IRQHandler+0x5bc>
 8001e5e:	9b05      	ldr	r3, [sp, #20]
 8001e60:	f009 010f 	and.w	r1, r9, #15
 8001e64:	f8d3 2834 	ldr.w	r2, [r3, #2100]	; 0x834
 8001e68:	2001      	movs	r0, #1
 8001e6a:	fa00 f101 	lsl.w	r1, r0, r1
 8001e6e:	ea22 0201 	bic.w	r2, r2, r1
 8001e72:	f8c3 2834 	str.w	r2, [r3, #2100]	; 0x834
 8001e76:	e01b      	b.n	8001eb0 <HAL_PCD_IRQHandler+0x5f4>
 8001e78:	eba3 0802 	sub.w	r8, r3, r2
 8001e7c:	6cbb      	ldr	r3, [r7, #72]	; 0x48
 8001e7e:	9805      	ldr	r0, [sp, #20]
 8001e80:	4598      	cmp	r8, r3
 8001e82:	bf28      	it	cs
 8001e84:	4698      	movcs	r8, r3
 8001e86:	f108 0303 	add.w	r3, r8, #3
 8001e8a:	089b      	lsrs	r3, r3, #2
 8001e8c:	9306      	str	r3, [sp, #24]
 8001e8e:	7c23      	ldrb	r3, [r4, #16]
 8001e90:	9300      	str	r3, [sp, #0]
 8001e92:	6cf9      	ldr	r1, [r7, #76]	; 0x4c
 8001e94:	fa1f f388 	uxth.w	r3, r8
 8001e98:	465a      	mov	r2, fp
 8001e9a:	f001 f835 	bl	8002f08 <USB_WritePacket>
 8001e9e:	6cfb      	ldr	r3, [r7, #76]	; 0x4c
 8001ea0:	4443      	add	r3, r8
 8001ea2:	64fb      	str	r3, [r7, #76]	; 0x4c
 8001ea4:	6dfb      	ldr	r3, [r7, #92]	; 0x5c
 8001ea6:	4443      	add	r3, r8
 8001ea8:	65fb      	str	r3, [r7, #92]	; 0x5c
 8001eaa:	e7ce      	b.n	8001e4a <HAL_PCD_IRQHandler+0x58e>
 8001eac:	429a      	cmp	r2, r3
 8001eae:	d2d6      	bcs.n	8001e5e <HAL_PCD_IRQHandler+0x5a2>
 8001eb0:	9b04      	ldr	r3, [sp, #16]
 8001eb2:	085b      	lsrs	r3, r3, #1
 8001eb4:	f109 0901 	add.w	r9, r9, #1
 8001eb8:	9304      	str	r3, [sp, #16]
 8001eba:	3724      	adds	r7, #36	; 0x24
 8001ebc:	f10a 0a20 	add.w	sl, sl, #32
 8001ec0:	e567      	b.n	8001992 <HAL_PCD_IRQHandler+0xd6>
 8001ec2:	4620      	mov	r0, r4
 8001ec4:	f002 f9e2 	bl	800428c <HAL_PCD_ResumeCallback>
 8001ec8:	e57c      	b.n	80019c4 <HAL_PCD_IRQHandler+0x108>
 8001eca:	4620      	mov	r0, r4
 8001ecc:	f002 f9c6 	bl	800425c <HAL_PCD_SuspendCallback>
 8001ed0:	e5a7      	b.n	8001a22 <HAL_PCD_IRQHandler+0x166>
 8001ed2:	bf00      	nop
 8001ed4:	4f54300a 	.word	0x4f54300a
 8001ed8:	4f54310a 	.word	0x4f54310a
 8001edc:	6099      	str	r1, [r3, #8]
 8001ede:	681a      	ldr	r2, [r3, #0]
 8001ee0:	f422 1200 	bic.w	r2, r2, #2097152	; 0x200000
 8001ee4:	601a      	str	r2, [r3, #0]
 8001ee6:	f8c3 1208 	str.w	r1, [r3, #520]	; 0x208
 8001eea:	f8d3 2200 	ldr.w	r2, [r3, #512]	; 0x200
 8001eee:	f422 1200 	bic.w	r2, r2, #2097152	; 0x200000
 8001ef2:	f8c3 2200 	str.w	r2, [r3, #512]	; 0x200
 8001ef6:	f8d3 2200 	ldr.w	r2, [r3, #512]	; 0x200
 8001efa:	f042 6200 	orr.w	r2, r2, #134217728	; 0x8000000
 8001efe:	f8c3 2200 	str.w	r2, [r3, #512]	; 0x200
 8001f02:	9a03      	ldr	r2, [sp, #12]
 8001f04:	3201      	adds	r2, #1
 8001f06:	9203      	str	r2, [sp, #12]
 8001f08:	3320      	adds	r3, #32
 8001f0a:	e59b      	b.n	8001a44 <HAL_PCD_IRQHandler+0x188>
 8001f0c:	696b      	ldr	r3, [r5, #20]
 8001f0e:	f443 5300 	orr.w	r3, r3, #8192	; 0x2000
 8001f12:	f043 032b 	orr.w	r3, r3, #43	; 0x2b
 8001f16:	616b      	str	r3, [r5, #20]
 8001f18:	692b      	ldr	r3, [r5, #16]
 8001f1a:	f043 030b 	orr.w	r3, r3, #11
 8001f1e:	612b      	str	r3, [r5, #16]
 8001f20:	e5a7      	b.n	8001a72 <HAL_PCD_IRQHandler+0x1b6>
 8001f22:	69b3      	ldr	r3, [r6, #24]
 8001f24:	f023 0380 	bic.w	r3, r3, #128	; 0x80
 8001f28:	61b3      	str	r3, [r6, #24]
 8001f2a:	2701      	movs	r7, #1
 8001f2c:	f204 287f 	addw	r8, r4, #639	; 0x27f
 8001f30:	f04f 0924 	mov.w	r9, #36	; 0x24
 8001f34:	6863      	ldr	r3, [r4, #4]
 8001f36:	42bb      	cmp	r3, r7
 8001f38:	f67f addb 	bls.w	8001af2 <HAL_PCD_IRQHandler+0x236>
 8001f3c:	fb09 f307 	mul.w	r3, r9, r7
 8001f40:	f818 3003 	ldrb.w	r3, [r8, r3]
 8001f44:	2b01      	cmp	r3, #1
 8001f46:	d103      	bne.n	8001f50 <HAL_PCD_IRQHandler+0x694>
 8001f48:	b2f9      	uxtb	r1, r7
 8001f4a:	4620      	mov	r0, r4
 8001f4c:	f7ff fca6 	bl	800189c <HAL_PCD_EP_Abort>
 8001f50:	3701      	adds	r7, #1
 8001f52:	e7ef      	b.n	8001f34 <HAL_PCD_IRQHandler+0x678>
 8001f54:	f898 3064 	ldrb.w	r3, [r8, #100]	; 0x64
 8001f58:	f8d9 2000 	ldr.w	r2, [r9]
 8001f5c:	2b01      	cmp	r3, #1
 8001f5e:	d109      	bne.n	8001f74 <HAL_PCD_IRQHandler+0x6b8>
 8001f60:	2a00      	cmp	r2, #0
 8001f62:	da07      	bge.n	8001f74 <HAL_PCD_IRQHandler+0x6b8>
 8001f64:	f067 017f 	orn	r1, r7, #127	; 0x7f
 8001f68:	f888 3063 	strb.w	r3, [r8, #99]	; 0x63
 8001f6c:	b2c9      	uxtb	r1, r1
 8001f6e:	4620      	mov	r0, r4
 8001f70:	f7ff fc94 	bl	800189c <HAL_PCD_EP_Abort>
 8001f74:	3701      	adds	r7, #1
 8001f76:	f108 0824 	add.w	r8, r8, #36	; 0x24
 8001f7a:	f109 0920 	add.w	r9, r9, #32
 8001f7e:	e5c1      	b.n	8001b04 <HAL_PCD_IRQHandler+0x248>
 8001f80:	3101      	adds	r1, #1
 8001f82:	3324      	adds	r3, #36	; 0x24
 8001f84:	3020      	adds	r0, #32
 8001f86:	e5d1      	b.n	8001b2c <HAL_PCD_IRQHandler+0x270>

08001f88 <HAL_PCDEx_SetTxFiFo>:
 8001f88:	6800      	ldr	r0, [r0, #0]
 8001f8a:	b570      	push	{r4, r5, r6, lr}
 8001f8c:	0412      	lsls	r2, r2, #16
 8001f8e:	6a44      	ldr	r4, [r0, #36]	; 0x24
 8001f90:	b919      	cbnz	r1, 8001f9a <HAL_PCDEx_SetTxFiFo+0x12>
 8001f92:	4322      	orrs	r2, r4
 8001f94:	6282      	str	r2, [r0, #40]	; 0x28
 8001f96:	2000      	movs	r0, #0
 8001f98:	bd70      	pop	{r4, r5, r6, pc}
 8001f9a:	6a83      	ldr	r3, [r0, #40]	; 0x28
 8001f9c:	1e4d      	subs	r5, r1, #1
 8001f9e:	eb04 4413 	add.w	r4, r4, r3, lsr #16
 8001fa2:	2300      	movs	r3, #0
 8001fa4:	1c5e      	adds	r6, r3, #1
 8001fa6:	b2db      	uxtb	r3, r3
 8001fa8:	429d      	cmp	r5, r3
 8001faa:	d805      	bhi.n	8001fb8 <HAL_PCDEx_SetTxFiFo+0x30>
 8001fac:	313f      	adds	r1, #63	; 0x3f
 8001fae:	eb00 0081 	add.w	r0, r0, r1, lsl #2
 8001fb2:	4322      	orrs	r2, r4
 8001fb4:	6042      	str	r2, [r0, #4]
 8001fb6:	e7ee      	b.n	8001f96 <HAL_PCDEx_SetTxFiFo+0xe>
 8001fb8:	3340      	adds	r3, #64	; 0x40
 8001fba:	eb00 0383 	add.w	r3, r0, r3, lsl #2
 8001fbe:	685b      	ldr	r3, [r3, #4]
 8001fc0:	eb04 4413 	add.w	r4, r4, r3, lsr #16
 8001fc4:	4633      	mov	r3, r6
 8001fc6:	e7ed      	b.n	8001fa4 <HAL_PCDEx_SetTxFiFo+0x1c>

08001fc8 <HAL_PCDEx_SetRxFiFo>:
 8001fc8:	6803      	ldr	r3, [r0, #0]
 8001fca:	2000      	movs	r0, #0
 8001fcc:	6259      	str	r1, [r3, #36]	; 0x24
 8001fce:	4770      	bx	lr

08001fd0 <HAL_PCDEx_ActivateLPM>:
 8001fd0:	6802      	ldr	r2, [r0, #0]
 8001fd2:	2100      	movs	r1, #0
 8001fd4:	f880 14f4 	strb.w	r1, [r0, #1268]	; 0x4f4
 8001fd8:	2301      	movs	r3, #1
 8001fda:	f8c0 3500 	str.w	r3, [r0, #1280]	; 0x500
 8001fde:	6993      	ldr	r3, [r2, #24]
 8001fe0:	f043 6300 	orr.w	r3, r3, #134217728	; 0x8000000
 8001fe4:	6193      	str	r3, [r2, #24]
 8001fe6:	6d53      	ldr	r3, [r2, #84]	; 0x54
 8001fe8:	f043 5380 	orr.w	r3, r3, #268435456	; 0x10000000
 8001fec:	f043 0303 	orr.w	r3, r3, #3
 8001ff0:	6553      	str	r3, [r2, #84]	; 0x54
 8001ff2:	4608      	mov	r0, r1
 8001ff4:	4770      	bx	lr
	...

08001ff8 <HAL_RCC_GetSysClockFreq>:
 8001ff8:	4913      	ldr	r1, [pc, #76]	; (8002048 <HAL_RCC_GetSysClockFreq+0x50>)
 8001ffa:	b508      	push	{r3, lr}
 8001ffc:	688b      	ldr	r3, [r1, #8]
 8001ffe:	f003 030c 	and.w	r3, r3, #12
 8002002:	2b04      	cmp	r3, #4
 8002004:	d01c      	beq.n	8002040 <HAL_RCC_GetSysClockFreq+0x48>
 8002006:	2b08      	cmp	r3, #8
 8002008:	d11c      	bne.n	8002044 <HAL_RCC_GetSysClockFreq+0x4c>
 800200a:	684a      	ldr	r2, [r1, #4]
 800200c:	684b      	ldr	r3, [r1, #4]
 800200e:	6849      	ldr	r1, [r1, #4]
 8002010:	f413 0380 	ands.w	r3, r3, #4194304	; 0x400000
 8002014:	bf14      	ite	ne
 8002016:	480d      	ldrne	r0, [pc, #52]	; (800204c <HAL_RCC_GetSysClockFreq+0x54>)
 8002018:	480d      	ldreq	r0, [pc, #52]	; (8002050 <HAL_RCC_GetSysClockFreq+0x58>)
 800201a:	f3c1 1188 	ubfx	r1, r1, #6, #9
 800201e:	bf18      	it	ne
 8002020:	2300      	movne	r3, #0
 8002022:	f002 023f 	and.w	r2, r2, #63	; 0x3f
 8002026:	fba1 0100 	umull	r0, r1, r1, r0
 800202a:	f7fe f8eb 	bl	8000204 <__aeabi_uldivmod>
 800202e:	4b06      	ldr	r3, [pc, #24]	; (8002048 <HAL_RCC_GetSysClockFreq+0x50>)
 8002030:	685b      	ldr	r3, [r3, #4]
 8002032:	f3c3 4301 	ubfx	r3, r3, #16, #2
 8002036:	3301      	adds	r3, #1
 8002038:	005b      	lsls	r3, r3, #1
 800203a:	fbb0 f0f3 	udiv	r0, r0, r3
 800203e:	bd08      	pop	{r3, pc}
 8002040:	4802      	ldr	r0, [pc, #8]	; (800204c <HAL_RCC_GetSysClockFreq+0x54>)
 8002042:	e7fc      	b.n	800203e <HAL_RCC_GetSysClockFreq+0x46>
 8002044:	4802      	ldr	r0, [pc, #8]	; (8002050 <HAL_RCC_GetSysClockFreq+0x58>)
 8002046:	e7fa      	b.n	800203e <HAL_RCC_GetSysClockFreq+0x46>
 8002048:	40023800 	.word	0x40023800
 800204c:	007a1200 	.word	0x007a1200
 8002050:	00f42400 	.word	0x00f42400

08002054 <HAL_RCC_ClockConfig>:
 8002054:	e92d 41f0 	stmdb	sp!, {r4, r5, r6, r7, r8, lr}
 8002058:	460d      	mov	r5, r1
 800205a:	4604      	mov	r4, r0
 800205c:	b910      	cbnz	r0, 8002064 <HAL_RCC_ClockConfig+0x10>
 800205e:	2001      	movs	r0, #1
 8002060:	e8bd 81f0 	ldmia.w	sp!, {r4, r5, r6, r7, r8, pc}
 8002064:	4b43      	ldr	r3, [pc, #268]	; (8002174 <HAL_RCC_ClockConfig+0x120>)
 8002066:	681a      	ldr	r2, [r3, #0]
 8002068:	f002 0207 	and.w	r2, r2, #7
 800206c:	428a      	cmp	r2, r1
 800206e:	d328      	bcc.n	80020c2 <HAL_RCC_ClockConfig+0x6e>
 8002070:	6821      	ldr	r1, [r4, #0]
 8002072:	078f      	lsls	r7, r1, #30
 8002074:	d42d      	bmi.n	80020d2 <HAL_RCC_ClockConfig+0x7e>
 8002076:	07c8      	lsls	r0, r1, #31
 8002078:	d440      	bmi.n	80020fc <HAL_RCC_ClockConfig+0xa8>
 800207a:	4b3e      	ldr	r3, [pc, #248]	; (8002174 <HAL_RCC_ClockConfig+0x120>)
 800207c:	681a      	ldr	r2, [r3, #0]
 800207e:	f002 0207 	and.w	r2, r2, #7
 8002082:	42aa      	cmp	r2, r5
 8002084:	d865      	bhi.n	8002152 <HAL_RCC_ClockConfig+0xfe>
 8002086:	6822      	ldr	r2, [r4, #0]
 8002088:	0751      	lsls	r1, r2, #29
 800208a:	d46b      	bmi.n	8002164 <HAL_RCC_ClockConfig+0x110>
 800208c:	0713      	lsls	r3, r2, #28
 800208e:	d507      	bpl.n	80020a0 <HAL_RCC_ClockConfig+0x4c>
 8002090:	4a39      	ldr	r2, [pc, #228]	; (8002178 <HAL_RCC_ClockConfig+0x124>)
 8002092:	6921      	ldr	r1, [r4, #16]
 8002094:	6893      	ldr	r3, [r2, #8]
 8002096:	f423 4360 	bic.w	r3, r3, #57344	; 0xe000
 800209a:	ea43 03c1 	orr.w	r3, r3, r1, lsl #3
 800209e:	6093      	str	r3, [r2, #8]
 80020a0:	f7ff ffaa 	bl	8001ff8 <HAL_RCC_GetSysClockFreq>
 80020a4:	4b34      	ldr	r3, [pc, #208]	; (8002178 <HAL_RCC_ClockConfig+0x124>)
 80020a6:	4a35      	ldr	r2, [pc, #212]	; (800217c <HAL_RCC_ClockConfig+0x128>)
 80020a8:	689b      	ldr	r3, [r3, #8]
 80020aa:	f3c3 1303 	ubfx	r3, r3, #4, #4
 80020ae:	5cd3      	ldrb	r3, [r2, r3]
 80020b0:	40d8      	lsrs	r0, r3
 80020b2:	4b33      	ldr	r3, [pc, #204]	; (8002180 <HAL_RCC_ClockConfig+0x12c>)
 80020b4:	6018      	str	r0, [r3, #0]
 80020b6:	4b33      	ldr	r3, [pc, #204]	; (8002184 <HAL_RCC_ClockConfig+0x130>)
 80020b8:	6818      	ldr	r0, [r3, #0]
 80020ba:	f7fe fd2b 	bl	8000b14 <HAL_InitTick>
 80020be:	2000      	movs	r0, #0
 80020c0:	e7ce      	b.n	8002060 <HAL_RCC_ClockConfig+0xc>
 80020c2:	b2ca      	uxtb	r2, r1
 80020c4:	701a      	strb	r2, [r3, #0]
 80020c6:	681b      	ldr	r3, [r3, #0]
 80020c8:	f003 0307 	and.w	r3, r3, #7
 80020cc:	428b      	cmp	r3, r1
 80020ce:	d1c6      	bne.n	800205e <HAL_RCC_ClockConfig+0xa>
 80020d0:	e7ce      	b.n	8002070 <HAL_RCC_ClockConfig+0x1c>
 80020d2:	4b29      	ldr	r3, [pc, #164]	; (8002178 <HAL_RCC_ClockConfig+0x124>)
 80020d4:	f011 0f04 	tst.w	r1, #4
 80020d8:	bf1e      	ittt	ne
 80020da:	689a      	ldrne	r2, [r3, #8]
 80020dc:	f442 52e0 	orrne.w	r2, r2, #7168	; 0x1c00
 80020e0:	609a      	strne	r2, [r3, #8]
 80020e2:	070e      	lsls	r6, r1, #28
 80020e4:	bf42      	ittt	mi
 80020e6:	689a      	ldrmi	r2, [r3, #8]
 80020e8:	f442 4260 	orrmi.w	r2, r2, #57344	; 0xe000
 80020ec:	609a      	strmi	r2, [r3, #8]
 80020ee:	689a      	ldr	r2, [r3, #8]
 80020f0:	68a0      	ldr	r0, [r4, #8]
 80020f2:	f022 02f0 	bic.w	r2, r2, #240	; 0xf0
 80020f6:	4302      	orrs	r2, r0
 80020f8:	609a      	str	r2, [r3, #8]
 80020fa:	e7bc      	b.n	8002076 <HAL_RCC_ClockConfig+0x22>
 80020fc:	6862      	ldr	r2, [r4, #4]
 80020fe:	4b1e      	ldr	r3, [pc, #120]	; (8002178 <HAL_RCC_ClockConfig+0x124>)
 8002100:	2a01      	cmp	r2, #1
 8002102:	d11c      	bne.n	800213e <HAL_RCC_ClockConfig+0xea>
 8002104:	681b      	ldr	r3, [r3, #0]
 8002106:	f413 3f00 	tst.w	r3, #131072	; 0x20000
 800210a:	d0a8      	beq.n	800205e <HAL_RCC_ClockConfig+0xa>
 800210c:	4e1a      	ldr	r6, [pc, #104]	; (8002178 <HAL_RCC_ClockConfig+0x124>)
 800210e:	68b3      	ldr	r3, [r6, #8]
 8002110:	f023 0303 	bic.w	r3, r3, #3
 8002114:	4313      	orrs	r3, r2
 8002116:	60b3      	str	r3, [r6, #8]
 8002118:	f7fe fd46 	bl	8000ba8 <HAL_GetTick>
 800211c:	f241 3888 	movw	r8, #5000	; 0x1388
 8002120:	4607      	mov	r7, r0
 8002122:	68b3      	ldr	r3, [r6, #8]
 8002124:	6862      	ldr	r2, [r4, #4]
 8002126:	f003 030c 	and.w	r3, r3, #12
 800212a:	ebb3 0f82 	cmp.w	r3, r2, lsl #2
 800212e:	d0a4      	beq.n	800207a <HAL_RCC_ClockConfig+0x26>
 8002130:	f7fe fd3a 	bl	8000ba8 <HAL_GetTick>
 8002134:	1bc0      	subs	r0, r0, r7
 8002136:	4540      	cmp	r0, r8
 8002138:	d9f3      	bls.n	8002122 <HAL_RCC_ClockConfig+0xce>
 800213a:	2003      	movs	r0, #3
 800213c:	e790      	b.n	8002060 <HAL_RCC_ClockConfig+0xc>
 800213e:	1e91      	subs	r1, r2, #2
 8002140:	2901      	cmp	r1, #1
 8002142:	681b      	ldr	r3, [r3, #0]
 8002144:	d802      	bhi.n	800214c <HAL_RCC_ClockConfig+0xf8>
 8002146:	f013 7f00 	tst.w	r3, #33554432	; 0x2000000
 800214a:	e7de      	b.n	800210a <HAL_RCC_ClockConfig+0xb6>
 800214c:	f013 0f02 	tst.w	r3, #2
 8002150:	e7db      	b.n	800210a <HAL_RCC_ClockConfig+0xb6>
 8002152:	b2ea      	uxtb	r2, r5
 8002154:	701a      	strb	r2, [r3, #0]
 8002156:	681b      	ldr	r3, [r3, #0]
 8002158:	f003 0307 	and.w	r3, r3, #7
 800215c:	42ab      	cmp	r3, r5
 800215e:	f47f af7e 	bne.w	800205e <HAL_RCC_ClockConfig+0xa>
 8002162:	e790      	b.n	8002086 <HAL_RCC_ClockConfig+0x32>
 8002164:	4904      	ldr	r1, [pc, #16]	; (8002178 <HAL_RCC_ClockConfig+0x124>)
 8002166:	68e0      	ldr	r0, [r4, #12]
 8002168:	688b      	ldr	r3, [r1, #8]
 800216a:	f423 53e0 	bic.w	r3, r3, #7168	; 0x1c00
 800216e:	4303      	orrs	r3, r0
 8002170:	608b      	str	r3, [r1, #8]
 8002172:	e78b      	b.n	800208c <HAL_RCC_ClockConfig+0x38>
 8002174:	40023c00 	.word	0x40023c00
 8002178:	40023800 	.word	0x40023800
 800217c:	08004674 	.word	0x08004674
 8002180:	20000000 	.word	0x20000000
 8002184:	20000008 	.word	0x20000008

08002188 <HAL_RCC_GetHCLKFreq>:
 8002188:	4b01      	ldr	r3, [pc, #4]	; (8002190 <HAL_RCC_GetHCLKFreq+0x8>)
 800218a:	6818      	ldr	r0, [r3, #0]
 800218c:	4770      	bx	lr
 800218e:	bf00      	nop
 8002190:	20000000 	.word	0x20000000

08002194 <HAL_RCCEx_PeriphCLKConfig>:
 8002194:	6802      	ldr	r2, [r0, #0]
 8002196:	e92d 41f3 	stmdb	sp!, {r0, r1, r4, r5, r6, r7, r8, lr}
 800219a:	f012 0501 	ands.w	r5, r2, #1
 800219e:	4604      	mov	r4, r0
 80021a0:	d00b      	beq.n	80021ba <HAL_RCCEx_PeriphCLKConfig+0x26>
 80021a2:	4990      	ldr	r1, [pc, #576]	; (80023e4 <HAL_RCCEx_PeriphCLKConfig+0x250>)
 80021a4:	6945      	ldr	r5, [r0, #20]
 80021a6:	f8d1 308c 	ldr.w	r3, [r1, #140]	; 0x8c
 80021aa:	f023 63c0 	bic.w	r3, r3, #100663296	; 0x6000000
 80021ae:	432b      	orrs	r3, r5
 80021b0:	fab5 f585 	clz	r5, r5
 80021b4:	f8c1 308c 	str.w	r3, [r1, #140]	; 0x8c
 80021b8:	096d      	lsrs	r5, r5, #5
 80021ba:	0796      	lsls	r6, r2, #30
 80021bc:	d50b      	bpl.n	80021d6 <HAL_RCCEx_PeriphCLKConfig+0x42>
 80021be:	4889      	ldr	r0, [pc, #548]	; (80023e4 <HAL_RCCEx_PeriphCLKConfig+0x250>)
 80021c0:	69a1      	ldr	r1, [r4, #24]
 80021c2:	f8d0 308c 	ldr.w	r3, [r0, #140]	; 0x8c
 80021c6:	f023 53c0 	bic.w	r3, r3, #402653184	; 0x18000000
 80021ca:	430b      	orrs	r3, r1
 80021cc:	2900      	cmp	r1, #0
 80021ce:	f8c0 308c 	str.w	r3, [r0, #140]	; 0x8c
 80021d2:	bf08      	it	eq
 80021d4:	2501      	moveq	r5, #1
 80021d6:	0710      	lsls	r0, r2, #28
 80021d8:	d531      	bpl.n	800223e <HAL_RCCEx_PeriphCLKConfig+0xaa>
 80021da:	2300      	movs	r3, #0
 80021dc:	9301      	str	r3, [sp, #4]
 80021de:	4b81      	ldr	r3, [pc, #516]	; (80023e4 <HAL_RCCEx_PeriphCLKConfig+0x250>)
 80021e0:	4e81      	ldr	r6, [pc, #516]	; (80023e8 <HAL_RCCEx_PeriphCLKConfig+0x254>)
 80021e2:	6c1a      	ldr	r2, [r3, #64]	; 0x40
 80021e4:	f042 5280 	orr.w	r2, r2, #268435456	; 0x10000000
 80021e8:	641a      	str	r2, [r3, #64]	; 0x40
 80021ea:	6c1b      	ldr	r3, [r3, #64]	; 0x40
 80021ec:	f003 5380 	and.w	r3, r3, #268435456	; 0x10000000
 80021f0:	9301      	str	r3, [sp, #4]
 80021f2:	9b01      	ldr	r3, [sp, #4]
 80021f4:	6833      	ldr	r3, [r6, #0]
 80021f6:	f443 7380 	orr.w	r3, r3, #256	; 0x100
 80021fa:	6033      	str	r3, [r6, #0]
 80021fc:	f7fe fcd4 	bl	8000ba8 <HAL_GetTick>
 8002200:	4607      	mov	r7, r0
 8002202:	6833      	ldr	r3, [r6, #0]
 8002204:	05d9      	lsls	r1, r3, #23
 8002206:	d55e      	bpl.n	80022c6 <HAL_RCCEx_PeriphCLKConfig+0x132>
 8002208:	4e76      	ldr	r6, [pc, #472]	; (80023e4 <HAL_RCCEx_PeriphCLKConfig+0x250>)
 800220a:	69e2      	ldr	r2, [r4, #28]
 800220c:	6f33      	ldr	r3, [r6, #112]	; 0x70
 800220e:	f413 7340 	ands.w	r3, r3, #768	; 0x300
 8002212:	d161      	bne.n	80022d8 <HAL_RCCEx_PeriphCLKConfig+0x144>
 8002214:	69e3      	ldr	r3, [r4, #28]
 8002216:	f403 7240 	and.w	r2, r3, #768	; 0x300
 800221a:	f5b2 7f40 	cmp.w	r2, #768	; 0x300
 800221e:	4a71      	ldr	r2, [pc, #452]	; (80023e4 <HAL_RCCEx_PeriphCLKConfig+0x250>)
 8002220:	d17a      	bne.n	8002318 <HAL_RCCEx_PeriphCLKConfig+0x184>
 8002222:	6891      	ldr	r1, [r2, #8]
 8002224:	f023 4070 	bic.w	r0, r3, #4026531840	; 0xf0000000
 8002228:	f421 11f8 	bic.w	r1, r1, #2031616	; 0x1f0000
 800222c:	f420 7040 	bic.w	r0, r0, #768	; 0x300
 8002230:	4301      	orrs	r1, r0
 8002232:	6091      	str	r1, [r2, #8]
 8002234:	6f11      	ldr	r1, [r2, #112]	; 0x70
 8002236:	f3c3 030b 	ubfx	r3, r3, #0, #12
 800223a:	430b      	orrs	r3, r1
 800223c:	6713      	str	r3, [r2, #112]	; 0x70
 800223e:	6823      	ldr	r3, [r4, #0]
 8002240:	075f      	lsls	r7, r3, #29
 8002242:	bf42      	ittt	mi
 8002244:	4b69      	ldrmi	r3, [pc, #420]	; (80023ec <HAL_RCCEx_PeriphCLKConfig+0x258>)
 8002246:	f894 2038 	ldrbmi.w	r2, [r4, #56]	; 0x38
 800224a:	f8c3 21e0 	strmi.w	r2, [r3, #480]	; 0x1e0
 800224e:	6822      	ldr	r2, [r4, #0]
 8002250:	06d6      	lsls	r6, r2, #27
 8002252:	d508      	bpl.n	8002266 <HAL_RCCEx_PeriphCLKConfig+0xd2>
 8002254:	4963      	ldr	r1, [pc, #396]	; (80023e4 <HAL_RCCEx_PeriphCLKConfig+0x250>)
 8002256:	6a60      	ldr	r0, [r4, #36]	; 0x24
 8002258:	f8d1 3094 	ldr.w	r3, [r1, #148]	; 0x94
 800225c:	f423 0340 	bic.w	r3, r3, #12582912	; 0xc00000
 8002260:	4303      	orrs	r3, r0
 8002262:	f8c1 3094 	str.w	r3, [r1, #148]	; 0x94
 8002266:	0690      	lsls	r0, r2, #26
 8002268:	d50c      	bpl.n	8002284 <HAL_RCCEx_PeriphCLKConfig+0xf0>
 800226a:	485e      	ldr	r0, [pc, #376]	; (80023e4 <HAL_RCCEx_PeriphCLKConfig+0x250>)
 800226c:	6aa1      	ldr	r1, [r4, #40]	; 0x28
 800226e:	f8d0 3094 	ldr.w	r3, [r0, #148]	; 0x94
 8002272:	f023 6300 	bic.w	r3, r3, #134217728	; 0x8000000
 8002276:	430b      	orrs	r3, r1
 8002278:	f1b1 6f00 	cmp.w	r1, #134217728	; 0x8000000
 800227c:	f8c0 3094 	str.w	r3, [r0, #148]	; 0x94
 8002280:	bf08      	it	eq
 8002282:	2501      	moveq	r5, #1
 8002284:	0651      	lsls	r1, r2, #25
 8002286:	d508      	bpl.n	800229a <HAL_RCCEx_PeriphCLKConfig+0x106>
 8002288:	4956      	ldr	r1, [pc, #344]	; (80023e4 <HAL_RCCEx_PeriphCLKConfig+0x250>)
 800228a:	6a20      	ldr	r0, [r4, #32]
 800228c:	f8d1 3094 	ldr.w	r3, [r1, #148]	; 0x94
 8002290:	f023 5380 	bic.w	r3, r3, #268435456	; 0x10000000
 8002294:	4303      	orrs	r3, r0
 8002296:	f8c1 3094 	str.w	r3, [r1, #148]	; 0x94
 800229a:	2d01      	cmp	r5, #1
 800229c:	d040      	beq.n	8002320 <HAL_RCCEx_PeriphCLKConfig+0x18c>
 800229e:	2a80      	cmp	r2, #128	; 0x80
 80022a0:	d03e      	beq.n	8002320 <HAL_RCCEx_PeriphCLKConfig+0x18c>
 80022a2:	6820      	ldr	r0, [r4, #0]
 80022a4:	05c3      	lsls	r3, r0, #23
 80022a6:	f100 8093 	bmi.w	80023d0 <HAL_RCCEx_PeriphCLKConfig+0x23c>
 80022aa:	f410 7000 	ands.w	r0, r0, #512	; 0x200
 80022ae:	d010      	beq.n	80022d2 <HAL_RCCEx_PeriphCLKConfig+0x13e>
 80022b0:	4a4c      	ldr	r2, [pc, #304]	; (80023e4 <HAL_RCCEx_PeriphCLKConfig+0x250>)
 80022b2:	6b21      	ldr	r1, [r4, #48]	; 0x30
 80022b4:	f8d2 308c 	ldr.w	r3, [r2, #140]	; 0x8c
 80022b8:	f423 4300 	bic.w	r3, r3, #32768	; 0x8000
 80022bc:	430b      	orrs	r3, r1
 80022be:	f8c2 308c 	str.w	r3, [r2, #140]	; 0x8c
 80022c2:	2000      	movs	r0, #0
 80022c4:	e005      	b.n	80022d2 <HAL_RCCEx_PeriphCLKConfig+0x13e>
 80022c6:	f7fe fc6f 	bl	8000ba8 <HAL_GetTick>
 80022ca:	1bc0      	subs	r0, r0, r7
 80022cc:	2802      	cmp	r0, #2
 80022ce:	d998      	bls.n	8002202 <HAL_RCCEx_PeriphCLKConfig+0x6e>
 80022d0:	2003      	movs	r0, #3
 80022d2:	b002      	add	sp, #8
 80022d4:	e8bd 81f0 	ldmia.w	sp!, {r4, r5, r6, r7, r8, pc}
 80022d8:	f402 7240 	and.w	r2, r2, #768	; 0x300
 80022dc:	4293      	cmp	r3, r2
 80022de:	d099      	beq.n	8002214 <HAL_RCCEx_PeriphCLKConfig+0x80>
 80022e0:	6f33      	ldr	r3, [r6, #112]	; 0x70
 80022e2:	4a43      	ldr	r2, [pc, #268]	; (80023f0 <HAL_RCCEx_PeriphCLKConfig+0x25c>)
 80022e4:	2101      	movs	r1, #1
 80022e6:	f8c2 1e40 	str.w	r1, [r2, #3648]	; 0xe40
 80022ea:	f423 7340 	bic.w	r3, r3, #768	; 0x300
 80022ee:	2100      	movs	r1, #0
 80022f0:	f8c2 1e40 	str.w	r1, [r2, #3648]	; 0xe40
 80022f4:	6733      	str	r3, [r6, #112]	; 0x70
 80022f6:	6f33      	ldr	r3, [r6, #112]	; 0x70
 80022f8:	07da      	lsls	r2, r3, #31
 80022fa:	d58b      	bpl.n	8002214 <HAL_RCCEx_PeriphCLKConfig+0x80>
 80022fc:	f7fe fc54 	bl	8000ba8 <HAL_GetTick>
 8002300:	f241 3888 	movw	r8, #5000	; 0x1388
 8002304:	4607      	mov	r7, r0
 8002306:	6f33      	ldr	r3, [r6, #112]	; 0x70
 8002308:	079b      	lsls	r3, r3, #30
 800230a:	d483      	bmi.n	8002214 <HAL_RCCEx_PeriphCLKConfig+0x80>
 800230c:	f7fe fc4c 	bl	8000ba8 <HAL_GetTick>
 8002310:	1bc0      	subs	r0, r0, r7
 8002312:	4540      	cmp	r0, r8
 8002314:	d9f7      	bls.n	8002306 <HAL_RCCEx_PeriphCLKConfig+0x172>
 8002316:	e7db      	b.n	80022d0 <HAL_RCCEx_PeriphCLKConfig+0x13c>
 8002318:	6891      	ldr	r1, [r2, #8]
 800231a:	f421 11f8 	bic.w	r1, r1, #2031616	; 0x1f0000
 800231e:	e788      	b.n	8002232 <HAL_RCCEx_PeriphCLKConfig+0x9e>
 8002320:	4b33      	ldr	r3, [pc, #204]	; (80023f0 <HAL_RCCEx_PeriphCLKConfig+0x25c>)
 8002322:	4e30      	ldr	r6, [pc, #192]	; (80023e4 <HAL_RCCEx_PeriphCLKConfig+0x250>)
 8002324:	2200      	movs	r2, #0
 8002326:	669a      	str	r2, [r3, #104]	; 0x68
 8002328:	f7fe fc3e 	bl	8000ba8 <HAL_GetTick>
 800232c:	4605      	mov	r5, r0
 800232e:	6833      	ldr	r3, [r6, #0]
 8002330:	011f      	lsls	r7, r3, #4
 8002332:	d447      	bmi.n	80023c4 <HAL_RCCEx_PeriphCLKConfig+0x230>
 8002334:	4b2d      	ldr	r3, [pc, #180]	; (80023ec <HAL_RCCEx_PeriphCLKConfig+0x258>)
 8002336:	6b62      	ldr	r2, [r4, #52]	; 0x34
 8002338:	f8c3 20d8 	str.w	r2, [r3, #216]	; 0xd8
 800233c:	6822      	ldr	r2, [r4, #0]
 800233e:	07d6      	lsls	r6, r2, #31
 8002340:	d501      	bpl.n	8002346 <HAL_RCCEx_PeriphCLKConfig+0x1b2>
 8002342:	6963      	ldr	r3, [r4, #20]
 8002344:	b18b      	cbz	r3, 800236a <HAL_RCCEx_PeriphCLKConfig+0x1d6>
 8002346:	0795      	lsls	r5, r2, #30
 8002348:	d501      	bpl.n	800234e <HAL_RCCEx_PeriphCLKConfig+0x1ba>
 800234a:	69a3      	ldr	r3, [r4, #24]
 800234c:	b16b      	cbz	r3, 800236a <HAL_RCCEx_PeriphCLKConfig+0x1d6>
 800234e:	0690      	lsls	r0, r2, #26
 8002350:	d503      	bpl.n	800235a <HAL_RCCEx_PeriphCLKConfig+0x1c6>
 8002352:	6aa3      	ldr	r3, [r4, #40]	; 0x28
 8002354:	f1b3 6f00 	cmp.w	r3, #134217728	; 0x8000000
 8002358:	d007      	beq.n	800236a <HAL_RCCEx_PeriphCLKConfig+0x1d6>
 800235a:	0651      	lsls	r1, r2, #25
 800235c:	d512      	bpl.n	8002384 <HAL_RCCEx_PeriphCLKConfig+0x1f0>
 800235e:	6a23      	ldr	r3, [r4, #32]
 8002360:	b983      	cbnz	r3, 8002384 <HAL_RCCEx_PeriphCLKConfig+0x1f0>
 8002362:	6aa3      	ldr	r3, [r4, #40]	; 0x28
 8002364:	f1b3 6f00 	cmp.w	r3, #134217728	; 0x8000000
 8002368:	d10c      	bne.n	8002384 <HAL_RCCEx_PeriphCLKConfig+0x1f0>
 800236a:	e9d4 1302 	ldrd	r1, r3, [r4, #8]
 800236e:	061b      	lsls	r3, r3, #24
 8002370:	ea43 1381 	orr.w	r3, r3, r1, lsl #6
 8002374:	6861      	ldr	r1, [r4, #4]
 8002376:	430b      	orrs	r3, r1
 8002378:	6921      	ldr	r1, [r4, #16]
 800237a:	ea43 7301 	orr.w	r3, r3, r1, lsl #28
 800237e:	4919      	ldr	r1, [pc, #100]	; (80023e4 <HAL_RCCEx_PeriphCLKConfig+0x250>)
 8002380:	f8c1 3084 	str.w	r3, [r1, #132]	; 0x84
 8002384:	0612      	lsls	r2, r2, #24
 8002386:	d50c      	bpl.n	80023a2 <HAL_RCCEx_PeriphCLKConfig+0x20e>
 8002388:	e9d4 2302 	ldrd	r2, r3, [r4, #8]
 800238c:	061b      	lsls	r3, r3, #24
 800238e:	ea43 1382 	orr.w	r3, r3, r2, lsl #6
 8002392:	6862      	ldr	r2, [r4, #4]
 8002394:	4313      	orrs	r3, r2
 8002396:	6922      	ldr	r2, [r4, #16]
 8002398:	ea43 7302 	orr.w	r3, r3, r2, lsl #28
 800239c:	4a11      	ldr	r2, [pc, #68]	; (80023e4 <HAL_RCCEx_PeriphCLKConfig+0x250>)
 800239e:	f8c2 3084 	str.w	r3, [r2, #132]	; 0x84
 80023a2:	4b13      	ldr	r3, [pc, #76]	; (80023f0 <HAL_RCCEx_PeriphCLKConfig+0x25c>)
 80023a4:	4e0f      	ldr	r6, [pc, #60]	; (80023e4 <HAL_RCCEx_PeriphCLKConfig+0x250>)
 80023a6:	2201      	movs	r2, #1
 80023a8:	669a      	str	r2, [r3, #104]	; 0x68
 80023aa:	f7fe fbfd 	bl	8000ba8 <HAL_GetTick>
 80023ae:	4605      	mov	r5, r0
 80023b0:	6833      	ldr	r3, [r6, #0]
 80023b2:	011b      	lsls	r3, r3, #4
 80023b4:	f53f af75 	bmi.w	80022a2 <HAL_RCCEx_PeriphCLKConfig+0x10e>
 80023b8:	f7fe fbf6 	bl	8000ba8 <HAL_GetTick>
 80023bc:	1b40      	subs	r0, r0, r5
 80023be:	2802      	cmp	r0, #2
 80023c0:	d9f6      	bls.n	80023b0 <HAL_RCCEx_PeriphCLKConfig+0x21c>
 80023c2:	e785      	b.n	80022d0 <HAL_RCCEx_PeriphCLKConfig+0x13c>
 80023c4:	f7fe fbf0 	bl	8000ba8 <HAL_GetTick>
 80023c8:	1b40      	subs	r0, r0, r5
 80023ca:	2802      	cmp	r0, #2
 80023cc:	d9af      	bls.n	800232e <HAL_RCCEx_PeriphCLKConfig+0x19a>
 80023ce:	e77f      	b.n	80022d0 <HAL_RCCEx_PeriphCLKConfig+0x13c>
 80023d0:	4a04      	ldr	r2, [pc, #16]	; (80023e4 <HAL_RCCEx_PeriphCLKConfig+0x250>)
 80023d2:	6ae1      	ldr	r1, [r4, #44]	; 0x2c
 80023d4:	f8d2 308c 	ldr.w	r3, [r2, #140]	; 0x8c
 80023d8:	f023 4300 	bic.w	r3, r3, #2147483648	; 0x80000000
 80023dc:	430b      	orrs	r3, r1
 80023de:	f8c2 308c 	str.w	r3, [r2, #140]	; 0x8c
 80023e2:	e762      	b.n	80022aa <HAL_RCCEx_PeriphCLKConfig+0x116>
 80023e4:	40023800 	.word	0x40023800
 80023e8:	40007000 	.word	0x40007000
 80023ec:	42471000 	.word	0x42471000
 80023f0:	42470000 	.word	0x42470000

080023f4 <HAL_RCC_OscConfig>:
 80023f4:	e92d 41f3 	stmdb	sp!, {r0, r1, r4, r5, r6, r7, r8, lr}
 80023f8:	4604      	mov	r4, r0
 80023fa:	b340      	cbz	r0, 800244e <HAL_RCC_OscConfig+0x5a>
 80023fc:	6803      	ldr	r3, [r0, #0]
 80023fe:	07dd      	lsls	r5, r3, #31
 8002400:	d410      	bmi.n	8002424 <HAL_RCC_OscConfig+0x30>
 8002402:	6823      	ldr	r3, [r4, #0]
 8002404:	0798      	lsls	r0, r3, #30
 8002406:	d45b      	bmi.n	80024c0 <HAL_RCC_OscConfig+0xcc>
 8002408:	6823      	ldr	r3, [r4, #0]
 800240a:	071a      	lsls	r2, r3, #28
 800240c:	f100 809d 	bmi.w	800254a <HAL_RCC_OscConfig+0x156>
 8002410:	6823      	ldr	r3, [r4, #0]
 8002412:	075b      	lsls	r3, r3, #29
 8002414:	f100 80bd 	bmi.w	8002592 <HAL_RCC_OscConfig+0x19e>
 8002418:	69a0      	ldr	r0, [r4, #24]
 800241a:	2800      	cmp	r0, #0
 800241c:	f040 8124 	bne.w	8002668 <HAL_RCC_OscConfig+0x274>
 8002420:	2000      	movs	r0, #0
 8002422:	e02c      	b.n	800247e <HAL_RCC_OscConfig+0x8a>
 8002424:	4b8d      	ldr	r3, [pc, #564]	; (800265c <HAL_RCC_OscConfig+0x268>)
 8002426:	689a      	ldr	r2, [r3, #8]
 8002428:	f002 020c 	and.w	r2, r2, #12
 800242c:	2a04      	cmp	r2, #4
 800242e:	d007      	beq.n	8002440 <HAL_RCC_OscConfig+0x4c>
 8002430:	689a      	ldr	r2, [r3, #8]
 8002432:	f002 020c 	and.w	r2, r2, #12
 8002436:	2a08      	cmp	r2, #8
 8002438:	d10b      	bne.n	8002452 <HAL_RCC_OscConfig+0x5e>
 800243a:	685b      	ldr	r3, [r3, #4]
 800243c:	0259      	lsls	r1, r3, #9
 800243e:	d508      	bpl.n	8002452 <HAL_RCC_OscConfig+0x5e>
 8002440:	4b86      	ldr	r3, [pc, #536]	; (800265c <HAL_RCC_OscConfig+0x268>)
 8002442:	681b      	ldr	r3, [r3, #0]
 8002444:	039a      	lsls	r2, r3, #14
 8002446:	d5dc      	bpl.n	8002402 <HAL_RCC_OscConfig+0xe>
 8002448:	6863      	ldr	r3, [r4, #4]
 800244a:	2b00      	cmp	r3, #0
 800244c:	d1d9      	bne.n	8002402 <HAL_RCC_OscConfig+0xe>
 800244e:	2001      	movs	r0, #1
 8002450:	e015      	b.n	800247e <HAL_RCC_OscConfig+0x8a>
 8002452:	6863      	ldr	r3, [r4, #4]
 8002454:	4d81      	ldr	r5, [pc, #516]	; (800265c <HAL_RCC_OscConfig+0x268>)
 8002456:	f5b3 3f80 	cmp.w	r3, #65536	; 0x10000
 800245a:	d113      	bne.n	8002484 <HAL_RCC_OscConfig+0x90>
 800245c:	682b      	ldr	r3, [r5, #0]
 800245e:	f443 3380 	orr.w	r3, r3, #65536	; 0x10000
 8002462:	602b      	str	r3, [r5, #0]
 8002464:	f7fe fba0 	bl	8000ba8 <HAL_GetTick>
 8002468:	4e7c      	ldr	r6, [pc, #496]	; (800265c <HAL_RCC_OscConfig+0x268>)
 800246a:	4605      	mov	r5, r0
 800246c:	6833      	ldr	r3, [r6, #0]
 800246e:	039b      	lsls	r3, r3, #14
 8002470:	d4c7      	bmi.n	8002402 <HAL_RCC_OscConfig+0xe>
 8002472:	f7fe fb99 	bl	8000ba8 <HAL_GetTick>
 8002476:	1b40      	subs	r0, r0, r5
 8002478:	2864      	cmp	r0, #100	; 0x64
 800247a:	d9f7      	bls.n	800246c <HAL_RCC_OscConfig+0x78>
 800247c:	2003      	movs	r0, #3
 800247e:	b002      	add	sp, #8
 8002480:	e8bd 81f0 	ldmia.w	sp!, {r4, r5, r6, r7, r8, pc}
 8002484:	f5b3 2fa0 	cmp.w	r3, #327680	; 0x50000
 8002488:	d104      	bne.n	8002494 <HAL_RCC_OscConfig+0xa0>
 800248a:	682b      	ldr	r3, [r5, #0]
 800248c:	f443 2380 	orr.w	r3, r3, #262144	; 0x40000
 8002490:	602b      	str	r3, [r5, #0]
 8002492:	e7e3      	b.n	800245c <HAL_RCC_OscConfig+0x68>
 8002494:	682a      	ldr	r2, [r5, #0]
 8002496:	f422 3280 	bic.w	r2, r2, #65536	; 0x10000
 800249a:	602a      	str	r2, [r5, #0]
 800249c:	682a      	ldr	r2, [r5, #0]
 800249e:	f422 2280 	bic.w	r2, r2, #262144	; 0x40000
 80024a2:	602a      	str	r2, [r5, #0]
 80024a4:	2b00      	cmp	r3, #0
 80024a6:	d1dd      	bne.n	8002464 <HAL_RCC_OscConfig+0x70>
 80024a8:	f7fe fb7e 	bl	8000ba8 <HAL_GetTick>
 80024ac:	4606      	mov	r6, r0
 80024ae:	682b      	ldr	r3, [r5, #0]
 80024b0:	039f      	lsls	r7, r3, #14
 80024b2:	d5a6      	bpl.n	8002402 <HAL_RCC_OscConfig+0xe>
 80024b4:	f7fe fb78 	bl	8000ba8 <HAL_GetTick>
 80024b8:	1b80      	subs	r0, r0, r6
 80024ba:	2864      	cmp	r0, #100	; 0x64
 80024bc:	d9f7      	bls.n	80024ae <HAL_RCC_OscConfig+0xba>
 80024be:	e7dd      	b.n	800247c <HAL_RCC_OscConfig+0x88>
 80024c0:	4b66      	ldr	r3, [pc, #408]	; (800265c <HAL_RCC_OscConfig+0x268>)
 80024c2:	689a      	ldr	r2, [r3, #8]
 80024c4:	f012 0f0c 	tst.w	r2, #12
 80024c8:	d007      	beq.n	80024da <HAL_RCC_OscConfig+0xe6>
 80024ca:	689a      	ldr	r2, [r3, #8]
 80024cc:	f002 020c 	and.w	r2, r2, #12
 80024d0:	2a08      	cmp	r2, #8
 80024d2:	d111      	bne.n	80024f8 <HAL_RCC_OscConfig+0x104>
 80024d4:	685b      	ldr	r3, [r3, #4]
 80024d6:	025e      	lsls	r6, r3, #9
 80024d8:	d40e      	bmi.n	80024f8 <HAL_RCC_OscConfig+0x104>
 80024da:	4a60      	ldr	r2, [pc, #384]	; (800265c <HAL_RCC_OscConfig+0x268>)
 80024dc:	6813      	ldr	r3, [r2, #0]
 80024de:	079d      	lsls	r5, r3, #30
 80024e0:	d502      	bpl.n	80024e8 <HAL_RCC_OscConfig+0xf4>
 80024e2:	68e3      	ldr	r3, [r4, #12]
 80024e4:	2b01      	cmp	r3, #1
 80024e6:	d1b2      	bne.n	800244e <HAL_RCC_OscConfig+0x5a>
 80024e8:	6813      	ldr	r3, [r2, #0]
 80024ea:	6921      	ldr	r1, [r4, #16]
 80024ec:	f023 03f8 	bic.w	r3, r3, #248	; 0xf8
 80024f0:	ea43 03c1 	orr.w	r3, r3, r1, lsl #3
 80024f4:	6013      	str	r3, [r2, #0]
 80024f6:	e787      	b.n	8002408 <HAL_RCC_OscConfig+0x14>
 80024f8:	68e2      	ldr	r2, [r4, #12]
 80024fa:	4b59      	ldr	r3, [pc, #356]	; (8002660 <HAL_RCC_OscConfig+0x26c>)
 80024fc:	b1b2      	cbz	r2, 800252c <HAL_RCC_OscConfig+0x138>
 80024fe:	2201      	movs	r2, #1
 8002500:	601a      	str	r2, [r3, #0]
 8002502:	f7fe fb51 	bl	8000ba8 <HAL_GetTick>
 8002506:	4d55      	ldr	r5, [pc, #340]	; (800265c <HAL_RCC_OscConfig+0x268>)
 8002508:	4606      	mov	r6, r0
 800250a:	682b      	ldr	r3, [r5, #0]
 800250c:	0798      	lsls	r0, r3, #30
 800250e:	d507      	bpl.n	8002520 <HAL_RCC_OscConfig+0x12c>
 8002510:	682b      	ldr	r3, [r5, #0]
 8002512:	6922      	ldr	r2, [r4, #16]
 8002514:	f023 03f8 	bic.w	r3, r3, #248	; 0xf8
 8002518:	ea43 03c2 	orr.w	r3, r3, r2, lsl #3
 800251c:	602b      	str	r3, [r5, #0]
 800251e:	e773      	b.n	8002408 <HAL_RCC_OscConfig+0x14>
 8002520:	f7fe fb42 	bl	8000ba8 <HAL_GetTick>
 8002524:	1b80      	subs	r0, r0, r6
 8002526:	2802      	cmp	r0, #2
 8002528:	d9ef      	bls.n	800250a <HAL_RCC_OscConfig+0x116>
 800252a:	e7a7      	b.n	800247c <HAL_RCC_OscConfig+0x88>
 800252c:	601a      	str	r2, [r3, #0]
 800252e:	f7fe fb3b 	bl	8000ba8 <HAL_GetTick>
 8002532:	4e4a      	ldr	r6, [pc, #296]	; (800265c <HAL_RCC_OscConfig+0x268>)
 8002534:	4605      	mov	r5, r0
 8002536:	6833      	ldr	r3, [r6, #0]
 8002538:	0799      	lsls	r1, r3, #30
 800253a:	f57f af65 	bpl.w	8002408 <HAL_RCC_OscConfig+0x14>
 800253e:	f7fe fb33 	bl	8000ba8 <HAL_GetTick>
 8002542:	1b40      	subs	r0, r0, r5
 8002544:	2802      	cmp	r0, #2
 8002546:	d9f6      	bls.n	8002536 <HAL_RCC_OscConfig+0x142>
 8002548:	e798      	b.n	800247c <HAL_RCC_OscConfig+0x88>
 800254a:	6962      	ldr	r2, [r4, #20]
 800254c:	4b44      	ldr	r3, [pc, #272]	; (8002660 <HAL_RCC_OscConfig+0x26c>)
 800254e:	b182      	cbz	r2, 8002572 <HAL_RCC_OscConfig+0x17e>
 8002550:	2201      	movs	r2, #1
 8002552:	f8c3 2e80 	str.w	r2, [r3, #3712]	; 0xe80
 8002556:	f7fe fb27 	bl	8000ba8 <HAL_GetTick>
 800255a:	4e40      	ldr	r6, [pc, #256]	; (800265c <HAL_RCC_OscConfig+0x268>)
 800255c:	4605      	mov	r5, r0
 800255e:	6f73      	ldr	r3, [r6, #116]	; 0x74
 8002560:	079f      	lsls	r7, r3, #30
 8002562:	f53f af55 	bmi.w	8002410 <HAL_RCC_OscConfig+0x1c>
 8002566:	f7fe fb1f 	bl	8000ba8 <HAL_GetTick>
 800256a:	1b40      	subs	r0, r0, r5
 800256c:	2802      	cmp	r0, #2
 800256e:	d9f6      	bls.n	800255e <HAL_RCC_OscConfig+0x16a>
 8002570:	e784      	b.n	800247c <HAL_RCC_OscConfig+0x88>
 8002572:	f8c3 2e80 	str.w	r2, [r3, #3712]	; 0xe80
 8002576:	f7fe fb17 	bl	8000ba8 <HAL_GetTick>
 800257a:	4e38      	ldr	r6, [pc, #224]	; (800265c <HAL_RCC_OscConfig+0x268>)
 800257c:	4605      	mov	r5, r0
 800257e:	6f73      	ldr	r3, [r6, #116]	; 0x74
 8002580:	0798      	lsls	r0, r3, #30
 8002582:	f57f af45 	bpl.w	8002410 <HAL_RCC_OscConfig+0x1c>
 8002586:	f7fe fb0f 	bl	8000ba8 <HAL_GetTick>
 800258a:	1b40      	subs	r0, r0, r5
 800258c:	2802      	cmp	r0, #2
 800258e:	d9f6      	bls.n	800257e <HAL_RCC_OscConfig+0x18a>
 8002590:	e774      	b.n	800247c <HAL_RCC_OscConfig+0x88>
 8002592:	4b32      	ldr	r3, [pc, #200]	; (800265c <HAL_RCC_OscConfig+0x268>)
 8002594:	6c1a      	ldr	r2, [r3, #64]	; 0x40
 8002596:	f012 5280 	ands.w	r2, r2, #268435456	; 0x10000000
 800259a:	d128      	bne.n	80025ee <HAL_RCC_OscConfig+0x1fa>
 800259c:	9201      	str	r2, [sp, #4]
 800259e:	6c1a      	ldr	r2, [r3, #64]	; 0x40
 80025a0:	f042 5280 	orr.w	r2, r2, #268435456	; 0x10000000
 80025a4:	641a      	str	r2, [r3, #64]	; 0x40
 80025a6:	6c1b      	ldr	r3, [r3, #64]	; 0x40
 80025a8:	f003 5380 	and.w	r3, r3, #268435456	; 0x10000000
 80025ac:	9301      	str	r3, [sp, #4]
 80025ae:	9b01      	ldr	r3, [sp, #4]
 80025b0:	2701      	movs	r7, #1
 80025b2:	4d2c      	ldr	r5, [pc, #176]	; (8002664 <HAL_RCC_OscConfig+0x270>)
 80025b4:	682b      	ldr	r3, [r5, #0]
 80025b6:	05d9      	lsls	r1, r3, #23
 80025b8:	d51b      	bpl.n	80025f2 <HAL_RCC_OscConfig+0x1fe>
 80025ba:	68a3      	ldr	r3, [r4, #8]
 80025bc:	4d27      	ldr	r5, [pc, #156]	; (800265c <HAL_RCC_OscConfig+0x268>)
 80025be:	2b01      	cmp	r3, #1
 80025c0:	d127      	bne.n	8002612 <HAL_RCC_OscConfig+0x21e>
 80025c2:	6f2b      	ldr	r3, [r5, #112]	; 0x70
 80025c4:	f043 0301 	orr.w	r3, r3, #1
 80025c8:	672b      	str	r3, [r5, #112]	; 0x70
 80025ca:	f7fe faed 	bl	8000ba8 <HAL_GetTick>
 80025ce:	4e23      	ldr	r6, [pc, #140]	; (800265c <HAL_RCC_OscConfig+0x268>)
 80025d0:	4605      	mov	r5, r0
 80025d2:	f241 3888 	movw	r8, #5000	; 0x1388
 80025d6:	6f33      	ldr	r3, [r6, #112]	; 0x70
 80025d8:	079b      	lsls	r3, r3, #30
 80025da:	d539      	bpl.n	8002650 <HAL_RCC_OscConfig+0x25c>
 80025dc:	2f00      	cmp	r7, #0
 80025de:	f43f af1b 	beq.w	8002418 <HAL_RCC_OscConfig+0x24>
 80025e2:	4a1e      	ldr	r2, [pc, #120]	; (800265c <HAL_RCC_OscConfig+0x268>)
 80025e4:	6c13      	ldr	r3, [r2, #64]	; 0x40
 80025e6:	f023 5380 	bic.w	r3, r3, #268435456	; 0x10000000
 80025ea:	6413      	str	r3, [r2, #64]	; 0x40
 80025ec:	e714      	b.n	8002418 <HAL_RCC_OscConfig+0x24>
 80025ee:	2700      	movs	r7, #0
 80025f0:	e7df      	b.n	80025b2 <HAL_RCC_OscConfig+0x1be>
 80025f2:	682b      	ldr	r3, [r5, #0]
 80025f4:	f443 7380 	orr.w	r3, r3, #256	; 0x100
 80025f8:	602b      	str	r3, [r5, #0]
 80025fa:	f7fe fad5 	bl	8000ba8 <HAL_GetTick>
 80025fe:	4606      	mov	r6, r0
 8002600:	682b      	ldr	r3, [r5, #0]
 8002602:	05da      	lsls	r2, r3, #23
 8002604:	d4d9      	bmi.n	80025ba <HAL_RCC_OscConfig+0x1c6>
 8002606:	f7fe facf 	bl	8000ba8 <HAL_GetTick>
 800260a:	1b80      	subs	r0, r0, r6
 800260c:	2802      	cmp	r0, #2
 800260e:	d9f7      	bls.n	8002600 <HAL_RCC_OscConfig+0x20c>
 8002610:	e734      	b.n	800247c <HAL_RCC_OscConfig+0x88>
 8002612:	2b05      	cmp	r3, #5
 8002614:	d104      	bne.n	8002620 <HAL_RCC_OscConfig+0x22c>
 8002616:	6f2b      	ldr	r3, [r5, #112]	; 0x70
 8002618:	f043 0304 	orr.w	r3, r3, #4
 800261c:	672b      	str	r3, [r5, #112]	; 0x70
 800261e:	e7d0      	b.n	80025c2 <HAL_RCC_OscConfig+0x1ce>
 8002620:	6f2a      	ldr	r2, [r5, #112]	; 0x70
 8002622:	f022 0201 	bic.w	r2, r2, #1
 8002626:	672a      	str	r2, [r5, #112]	; 0x70
 8002628:	6f2a      	ldr	r2, [r5, #112]	; 0x70
 800262a:	f022 0204 	bic.w	r2, r2, #4
 800262e:	672a      	str	r2, [r5, #112]	; 0x70
 8002630:	2b00      	cmp	r3, #0
 8002632:	d1ca      	bne.n	80025ca <HAL_RCC_OscConfig+0x1d6>
 8002634:	f7fe fab8 	bl	8000ba8 <HAL_GetTick>
 8002638:	f241 3888 	movw	r8, #5000	; 0x1388
 800263c:	4606      	mov	r6, r0
 800263e:	6f2b      	ldr	r3, [r5, #112]	; 0x70
 8002640:	0798      	lsls	r0, r3, #30
 8002642:	d5cb      	bpl.n	80025dc <HAL_RCC_OscConfig+0x1e8>
 8002644:	f7fe fab0 	bl	8000ba8 <HAL_GetTick>
 8002648:	1b80      	subs	r0, r0, r6
 800264a:	4540      	cmp	r0, r8
 800264c:	d9f7      	bls.n	800263e <HAL_RCC_OscConfig+0x24a>
 800264e:	e715      	b.n	800247c <HAL_RCC_OscConfig+0x88>
 8002650:	f7fe faaa 	bl	8000ba8 <HAL_GetTick>
 8002654:	1b40      	subs	r0, r0, r5
 8002656:	4540      	cmp	r0, r8
 8002658:	d9bd      	bls.n	80025d6 <HAL_RCC_OscConfig+0x1e2>
 800265a:	e70f      	b.n	800247c <HAL_RCC_OscConfig+0x88>
 800265c:	40023800 	.word	0x40023800
 8002660:	42470000 	.word	0x42470000
 8002664:	40007000 	.word	0x40007000
 8002668:	4d3b      	ldr	r5, [pc, #236]	; (8002758 <HAL_RCC_OscConfig+0x364>)
 800266a:	68ab      	ldr	r3, [r5, #8]
 800266c:	f003 030c 	and.w	r3, r3, #12
 8002670:	2b08      	cmp	r3, #8
 8002672:	d040      	beq.n	80026f6 <HAL_RCC_OscConfig+0x302>
 8002674:	4b39      	ldr	r3, [pc, #228]	; (800275c <HAL_RCC_OscConfig+0x368>)
 8002676:	2200      	movs	r2, #0
 8002678:	2802      	cmp	r0, #2
 800267a:	661a      	str	r2, [r3, #96]	; 0x60
 800267c:	d12e      	bne.n	80026dc <HAL_RCC_OscConfig+0x2e8>
 800267e:	f7fe fa93 	bl	8000ba8 <HAL_GetTick>
 8002682:	4606      	mov	r6, r0
 8002684:	682b      	ldr	r3, [r5, #0]
 8002686:	0199      	lsls	r1, r3, #6
 8002688:	d422      	bmi.n	80026d0 <HAL_RCC_OscConfig+0x2dc>
 800268a:	e9d4 3207 	ldrd	r3, r2, [r4, #28]
 800268e:	4313      	orrs	r3, r2
 8002690:	6a62      	ldr	r2, [r4, #36]	; 0x24
 8002692:	ea43 1382 	orr.w	r3, r3, r2, lsl #6
 8002696:	6ae2      	ldr	r2, [r4, #44]	; 0x2c
 8002698:	ea43 6302 	orr.w	r3, r3, r2, lsl #24
 800269c:	6b22      	ldr	r2, [r4, #48]	; 0x30
 800269e:	ea43 7302 	orr.w	r3, r3, r2, lsl #28
 80026a2:	6aa2      	ldr	r2, [r4, #40]	; 0x28
 80026a4:	0852      	lsrs	r2, r2, #1
 80026a6:	3a01      	subs	r2, #1
 80026a8:	ea43 4302 	orr.w	r3, r3, r2, lsl #16
 80026ac:	606b      	str	r3, [r5, #4]
 80026ae:	4b2b      	ldr	r3, [pc, #172]	; (800275c <HAL_RCC_OscConfig+0x368>)
 80026b0:	4d29      	ldr	r5, [pc, #164]	; (8002758 <HAL_RCC_OscConfig+0x364>)
 80026b2:	2201      	movs	r2, #1
 80026b4:	661a      	str	r2, [r3, #96]	; 0x60
 80026b6:	f7fe fa77 	bl	8000ba8 <HAL_GetTick>
 80026ba:	4604      	mov	r4, r0
 80026bc:	682b      	ldr	r3, [r5, #0]
 80026be:	019a      	lsls	r2, r3, #6
 80026c0:	f53f aeae 	bmi.w	8002420 <HAL_RCC_OscConfig+0x2c>
 80026c4:	f7fe fa70 	bl	8000ba8 <HAL_GetTick>
 80026c8:	1b00      	subs	r0, r0, r4
 80026ca:	2802      	cmp	r0, #2
 80026cc:	d9f6      	bls.n	80026bc <HAL_RCC_OscConfig+0x2c8>
 80026ce:	e6d5      	b.n	800247c <HAL_RCC_OscConfig+0x88>
 80026d0:	f7fe fa6a 	bl	8000ba8 <HAL_GetTick>
 80026d4:	1b80      	subs	r0, r0, r6
 80026d6:	2802      	cmp	r0, #2
 80026d8:	d9d4      	bls.n	8002684 <HAL_RCC_OscConfig+0x290>
 80026da:	e6cf      	b.n	800247c <HAL_RCC_OscConfig+0x88>
 80026dc:	f7fe fa64 	bl	8000ba8 <HAL_GetTick>
 80026e0:	4604      	mov	r4, r0
 80026e2:	682b      	ldr	r3, [r5, #0]
 80026e4:	019b      	lsls	r3, r3, #6
 80026e6:	f57f ae9b 	bpl.w	8002420 <HAL_RCC_OscConfig+0x2c>
 80026ea:	f7fe fa5d 	bl	8000ba8 <HAL_GetTick>
 80026ee:	1b00      	subs	r0, r0, r4
 80026f0:	2802      	cmp	r0, #2
 80026f2:	d9f6      	bls.n	80026e2 <HAL_RCC_OscConfig+0x2ee>
 80026f4:	e6c2      	b.n	800247c <HAL_RCC_OscConfig+0x88>
 80026f6:	2801      	cmp	r0, #1
 80026f8:	f43f aec1 	beq.w	800247e <HAL_RCC_OscConfig+0x8a>
 80026fc:	686b      	ldr	r3, [r5, #4]
 80026fe:	69e2      	ldr	r2, [r4, #28]
 8002700:	f403 0180 	and.w	r1, r3, #4194304	; 0x400000
 8002704:	4291      	cmp	r1, r2
 8002706:	f47f aea2 	bne.w	800244e <HAL_RCC_OscConfig+0x5a>
 800270a:	6a21      	ldr	r1, [r4, #32]
 800270c:	f003 023f 	and.w	r2, r3, #63	; 0x3f
 8002710:	428a      	cmp	r2, r1
 8002712:	f47f ae9c 	bne.w	800244e <HAL_RCC_OscConfig+0x5a>
 8002716:	6a61      	ldr	r1, [r4, #36]	; 0x24
 8002718:	f647 72c0 	movw	r2, #32704	; 0x7fc0
 800271c:	401a      	ands	r2, r3
 800271e:	ebb2 1f81 	cmp.w	r2, r1, lsl #6
 8002722:	f47f ae94 	bne.w	800244e <HAL_RCC_OscConfig+0x5a>
 8002726:	6aa2      	ldr	r2, [r4, #40]	; 0x28
 8002728:	0852      	lsrs	r2, r2, #1
 800272a:	f403 3140 	and.w	r1, r3, #196608	; 0x30000
 800272e:	3a01      	subs	r2, #1
 8002730:	ebb1 4f02 	cmp.w	r1, r2, lsl #16
 8002734:	f47f ae8b 	bne.w	800244e <HAL_RCC_OscConfig+0x5a>
 8002738:	6ae1      	ldr	r1, [r4, #44]	; 0x2c
 800273a:	f003 6270 	and.w	r2, r3, #251658240	; 0xf000000
 800273e:	ebb2 6f01 	cmp.w	r2, r1, lsl #24
 8002742:	f47f ae84 	bne.w	800244e <HAL_RCC_OscConfig+0x5a>
 8002746:	6b22      	ldr	r2, [r4, #48]	; 0x30
 8002748:	f003 43e0 	and.w	r3, r3, #1879048192	; 0x70000000
 800274c:	ebb3 7f02 	cmp.w	r3, r2, lsl #28
 8002750:	f43f ae66 	beq.w	8002420 <HAL_RCC_OscConfig+0x2c>
 8002754:	e67b      	b.n	800244e <HAL_RCC_OscConfig+0x5a>
 8002756:	bf00      	nop
 8002758:	40023800 	.word	0x40023800
 800275c:	42470000 	.word	0x42470000

08002760 <HAL_SPI_Init>:
 8002760:	b510      	push	{r4, lr}
 8002762:	4604      	mov	r4, r0
 8002764:	2800      	cmp	r0, #0
 8002766:	d055      	beq.n	8002814 <HAL_SPI_Init+0xb4>
 8002768:	6a43      	ldr	r3, [r0, #36]	; 0x24
 800276a:	2b00      	cmp	r3, #0
 800276c:	d14e      	bne.n	800280c <HAL_SPI_Init+0xac>
 800276e:	6842      	ldr	r2, [r0, #4]
 8002770:	f5b2 7f82 	cmp.w	r2, #260	; 0x104
 8002774:	d000      	beq.n	8002778 <HAL_SPI_Init+0x18>
 8002776:	61c3      	str	r3, [r0, #28]
 8002778:	2300      	movs	r3, #0
 800277a:	62a3      	str	r3, [r4, #40]	; 0x28
 800277c:	f894 3051 	ldrb.w	r3, [r4, #81]	; 0x51
 8002780:	f003 02ff 	and.w	r2, r3, #255	; 0xff
 8002784:	b923      	cbnz	r3, 8002790 <HAL_SPI_Init+0x30>
 8002786:	f884 2050 	strb.w	r2, [r4, #80]	; 0x50
 800278a:	4620      	mov	r0, r4
 800278c:	f7fe f912 	bl	80009b4 <HAL_SPI_MspInit>
 8002790:	6821      	ldr	r1, [r4, #0]
 8002792:	68a0      	ldr	r0, [r4, #8]
 8002794:	69a2      	ldr	r2, [r4, #24]
 8002796:	2302      	movs	r3, #2
 8002798:	f884 3051 	strb.w	r3, [r4, #81]	; 0x51
 800279c:	680b      	ldr	r3, [r1, #0]
 800279e:	f023 0340 	bic.w	r3, r3, #64	; 0x40
 80027a2:	600b      	str	r3, [r1, #0]
 80027a4:	6863      	ldr	r3, [r4, #4]
 80027a6:	f400 4004 	and.w	r0, r0, #33792	; 0x8400
 80027aa:	f403 7382 	and.w	r3, r3, #260	; 0x104
 80027ae:	4303      	orrs	r3, r0
 80027b0:	68e0      	ldr	r0, [r4, #12]
 80027b2:	f400 6000 	and.w	r0, r0, #2048	; 0x800
 80027b6:	4303      	orrs	r3, r0
 80027b8:	6920      	ldr	r0, [r4, #16]
 80027ba:	f000 0002 	and.w	r0, r0, #2
 80027be:	4303      	orrs	r3, r0
 80027c0:	6960      	ldr	r0, [r4, #20]
 80027c2:	f000 0001 	and.w	r0, r0, #1
 80027c6:	4303      	orrs	r3, r0
 80027c8:	f402 7000 	and.w	r0, r2, #512	; 0x200
 80027cc:	4303      	orrs	r3, r0
 80027ce:	69e0      	ldr	r0, [r4, #28]
 80027d0:	f000 0038 	and.w	r0, r0, #56	; 0x38
 80027d4:	4303      	orrs	r3, r0
 80027d6:	6a20      	ldr	r0, [r4, #32]
 80027d8:	f000 0080 	and.w	r0, r0, #128	; 0x80
 80027dc:	4303      	orrs	r3, r0
 80027de:	6aa0      	ldr	r0, [r4, #40]	; 0x28
 80027e0:	f400 5000 	and.w	r0, r0, #8192	; 0x2000
 80027e4:	4303      	orrs	r3, r0
 80027e6:	600b      	str	r3, [r1, #0]
 80027e8:	6a63      	ldr	r3, [r4, #36]	; 0x24
 80027ea:	0c12      	lsrs	r2, r2, #16
 80027ec:	f003 0310 	and.w	r3, r3, #16
 80027f0:	f002 0204 	and.w	r2, r2, #4
 80027f4:	431a      	orrs	r2, r3
 80027f6:	604a      	str	r2, [r1, #4]
 80027f8:	69cb      	ldr	r3, [r1, #28]
 80027fa:	f423 6300 	bic.w	r3, r3, #2048	; 0x800
 80027fe:	61cb      	str	r3, [r1, #28]
 8002800:	2000      	movs	r0, #0
 8002802:	2301      	movs	r3, #1
 8002804:	6560      	str	r0, [r4, #84]	; 0x54
 8002806:	f884 3051 	strb.w	r3, [r4, #81]	; 0x51
 800280a:	bd10      	pop	{r4, pc}
 800280c:	2300      	movs	r3, #0
 800280e:	e9c0 3304 	strd	r3, r3, [r0, #16]
 8002812:	e7b1      	b.n	8002778 <HAL_SPI_Init+0x18>
 8002814:	2001      	movs	r0, #1
 8002816:	e7f8      	b.n	800280a <HAL_SPI_Init+0xaa>

08002818 <USB_CoreReset>:
 8002818:	b082      	sub	sp, #8
 800281a:	2300      	movs	r3, #0
 800281c:	4a10      	ldr	r2, [pc, #64]	; (8002860 <USB_CoreReset+0x48>)
 800281e:	9301      	str	r3, [sp, #4]
 8002820:	9b01      	ldr	r3, [sp, #4]
 8002822:	3301      	adds	r3, #1
 8002824:	9301      	str	r3, [sp, #4]
 8002826:	9b01      	ldr	r3, [sp, #4]
 8002828:	4293      	cmp	r3, r2
 800282a:	d816      	bhi.n	800285a <USB_CoreReset+0x42>
 800282c:	6903      	ldr	r3, [r0, #16]
 800282e:	2b00      	cmp	r3, #0
 8002830:	daf6      	bge.n	8002820 <USB_CoreReset+0x8>
 8002832:	2300      	movs	r3, #0
 8002834:	9301      	str	r3, [sp, #4]
 8002836:	6903      	ldr	r3, [r0, #16]
 8002838:	4a09      	ldr	r2, [pc, #36]	; (8002860 <USB_CoreReset+0x48>)
 800283a:	f043 0301 	orr.w	r3, r3, #1
 800283e:	6103      	str	r3, [r0, #16]
 8002840:	9b01      	ldr	r3, [sp, #4]
 8002842:	3301      	adds	r3, #1
 8002844:	9301      	str	r3, [sp, #4]
 8002846:	9b01      	ldr	r3, [sp, #4]
 8002848:	4293      	cmp	r3, r2
 800284a:	d806      	bhi.n	800285a <USB_CoreReset+0x42>
 800284c:	6903      	ldr	r3, [r0, #16]
 800284e:	f013 0301 	ands.w	r3, r3, #1
 8002852:	d1f5      	bne.n	8002840 <USB_CoreReset+0x28>
 8002854:	4618      	mov	r0, r3
 8002856:	b002      	add	sp, #8
 8002858:	4770      	bx	lr
 800285a:	2003      	movs	r0, #3
 800285c:	e7fb      	b.n	8002856 <USB_CoreReset+0x3e>
 800285e:	bf00      	nop
 8002860:	00030d40 	.word	0x00030d40

08002864 <USB_CoreInit>:
 8002864:	b084      	sub	sp, #16
 8002866:	b538      	push	{r3, r4, r5, lr}
 8002868:	ad05      	add	r5, sp, #20
 800286a:	e885 000e 	stmia.w	r5, {r1, r2, r3}
 800286e:	9b0a      	ldr	r3, [sp, #40]	; 0x28
 8002870:	2b01      	cmp	r3, #1
 8002872:	4604      	mov	r4, r0
 8002874:	d125      	bne.n	80028c2 <USB_CoreInit+0x5e>
 8002876:	6b83      	ldr	r3, [r0, #56]	; 0x38
 8002878:	f423 3380 	bic.w	r3, r3, #65536	; 0x10000
 800287c:	6383      	str	r3, [r0, #56]	; 0x38
 800287e:	68c3      	ldr	r3, [r0, #12]
 8002880:	f423 0384 	bic.w	r3, r3, #4325376	; 0x420000
 8002884:	f023 0340 	bic.w	r3, r3, #64	; 0x40
 8002888:	60c3      	str	r3, [r0, #12]
 800288a:	68c3      	ldr	r3, [r0, #12]
 800288c:	f423 1340 	bic.w	r3, r3, #3145728	; 0x300000
 8002890:	60c3      	str	r3, [r0, #12]
 8002892:	9b11      	ldr	r3, [sp, #68]	; 0x44
 8002894:	2b01      	cmp	r3, #1
 8002896:	bf02      	ittt	eq
 8002898:	68c3      	ldreq	r3, [r0, #12]
 800289a:	f443 1380 	orreq.w	r3, r3, #1048576	; 0x100000
 800289e:	60c3      	streq	r3, [r0, #12]
 80028a0:	f7ff ffba 	bl	8002818 <USB_CoreReset>
 80028a4:	9b08      	ldr	r3, [sp, #32]
 80028a6:	2b01      	cmp	r3, #1
 80028a8:	d107      	bne.n	80028ba <USB_CoreInit+0x56>
 80028aa:	68a3      	ldr	r3, [r4, #8]
 80028ac:	f043 0306 	orr.w	r3, r3, #6
 80028b0:	60a3      	str	r3, [r4, #8]
 80028b2:	68a3      	ldr	r3, [r4, #8]
 80028b4:	f043 0320 	orr.w	r3, r3, #32
 80028b8:	60a3      	str	r3, [r4, #8]
 80028ba:	e8bd 4038 	ldmia.w	sp!, {r3, r4, r5, lr}
 80028be:	b004      	add	sp, #16
 80028c0:	4770      	bx	lr
 80028c2:	68c3      	ldr	r3, [r0, #12]
 80028c4:	f043 0340 	orr.w	r3, r3, #64	; 0x40
 80028c8:	60c3      	str	r3, [r0, #12]
 80028ca:	f7ff ffa5 	bl	8002818 <USB_CoreReset>
 80028ce:	9b0e      	ldr	r3, [sp, #56]	; 0x38
 80028d0:	b923      	cbnz	r3, 80028dc <USB_CoreInit+0x78>
 80028d2:	6ba3      	ldr	r3, [r4, #56]	; 0x38
 80028d4:	f443 3380 	orr.w	r3, r3, #65536	; 0x10000
 80028d8:	63a3      	str	r3, [r4, #56]	; 0x38
 80028da:	e7e3      	b.n	80028a4 <USB_CoreInit+0x40>
 80028dc:	6ba3      	ldr	r3, [r4, #56]	; 0x38
 80028de:	f423 3380 	bic.w	r3, r3, #65536	; 0x10000
 80028e2:	e7f9      	b.n	80028d8 <USB_CoreInit+0x74>

080028e4 <USB_SetTurnaroundTime>:
 80028e4:	2a02      	cmp	r2, #2
 80028e6:	d14a      	bne.n	800297e <USB_SetTurnaroundTime+0x9a>
 80028e8:	4b27      	ldr	r3, [pc, #156]	; (8002988 <USB_SetTurnaroundTime+0xa4>)
 80028ea:	4a28      	ldr	r2, [pc, #160]	; (800298c <USB_SetTurnaroundTime+0xa8>)
 80028ec:	440b      	add	r3, r1
 80028ee:	4293      	cmp	r3, r2
 80028f0:	d939      	bls.n	8002966 <USB_SetTurnaroundTime+0x82>
 80028f2:	4b27      	ldr	r3, [pc, #156]	; (8002990 <USB_SetTurnaroundTime+0xac>)
 80028f4:	4a27      	ldr	r2, [pc, #156]	; (8002994 <USB_SetTurnaroundTime+0xb0>)
 80028f6:	440b      	add	r3, r1
 80028f8:	4293      	cmp	r3, r2
 80028fa:	d936      	bls.n	800296a <USB_SetTurnaroundTime+0x86>
 80028fc:	4a26      	ldr	r2, [pc, #152]	; (8002998 <USB_SetTurnaroundTime+0xb4>)
 80028fe:	f5a1 0374 	sub.w	r3, r1, #15990784	; 0xf40000
 8002902:	f5a3 5310 	sub.w	r3, r3, #9216	; 0x2400
 8002906:	4293      	cmp	r3, r2
 8002908:	d931      	bls.n	800296e <USB_SetTurnaroundTime+0x8a>
 800290a:	4a24      	ldr	r2, [pc, #144]	; (800299c <USB_SetTurnaroundTime+0xb8>)
 800290c:	f1a1 7383 	sub.w	r3, r1, #17170432	; 0x1060000
 8002910:	f5a3 43e7 	sub.w	r3, r3, #29568	; 0x7380
 8002914:	4293      	cmp	r3, r2
 8002916:	d32c      	bcc.n	8002972 <USB_SetTurnaroundTime+0x8e>
 8002918:	4b21      	ldr	r3, [pc, #132]	; (80029a0 <USB_SetTurnaroundTime+0xbc>)
 800291a:	4a22      	ldr	r2, [pc, #136]	; (80029a4 <USB_SetTurnaroundTime+0xc0>)
 800291c:	440b      	add	r3, r1
 800291e:	4293      	cmp	r3, r2
 8002920:	d929      	bls.n	8002976 <USB_SetTurnaroundTime+0x92>
 8002922:	4b21      	ldr	r3, [pc, #132]	; (80029a8 <USB_SetTurnaroundTime+0xc4>)
 8002924:	4a21      	ldr	r2, [pc, #132]	; (80029ac <USB_SetTurnaroundTime+0xc8>)
 8002926:	440b      	add	r3, r1
 8002928:	4293      	cmp	r3, r2
 800292a:	d326      	bcc.n	800297a <USB_SetTurnaroundTime+0x96>
 800292c:	4b20      	ldr	r3, [pc, #128]	; (80029b0 <USB_SetTurnaroundTime+0xcc>)
 800292e:	4a21      	ldr	r2, [pc, #132]	; (80029b4 <USB_SetTurnaroundTime+0xd0>)
 8002930:	440b      	add	r3, r1
 8002932:	4293      	cmp	r3, r2
 8002934:	d323      	bcc.n	800297e <USB_SetTurnaroundTime+0x9a>
 8002936:	4a20      	ldr	r2, [pc, #128]	; (80029b8 <USB_SetTurnaroundTime+0xd4>)
 8002938:	f1a1 73b7 	sub.w	r3, r1, #23986176	; 0x16e0000
 800293c:	f5a3 5358 	sub.w	r3, r3, #13824	; 0x3600
 8002940:	4293      	cmp	r3, r2
 8002942:	d31e      	bcc.n	8002982 <USB_SetTurnaroundTime+0x9e>
 8002944:	4b1d      	ldr	r3, [pc, #116]	; (80029bc <USB_SetTurnaroundTime+0xd8>)
 8002946:	4a1e      	ldr	r2, [pc, #120]	; (80029c0 <USB_SetTurnaroundTime+0xdc>)
 8002948:	440b      	add	r3, r1
 800294a:	4293      	cmp	r3, r2
 800294c:	bf34      	ite	cc
 800294e:	2307      	movcc	r3, #7
 8002950:	2306      	movcs	r3, #6
 8002952:	68c2      	ldr	r2, [r0, #12]
 8002954:	f422 5270 	bic.w	r2, r2, #15360	; 0x3c00
 8002958:	60c2      	str	r2, [r0, #12]
 800295a:	68c2      	ldr	r2, [r0, #12]
 800295c:	ea42 2383 	orr.w	r3, r2, r3, lsl #10
 8002960:	60c3      	str	r3, [r0, #12]
 8002962:	2000      	movs	r0, #0
 8002964:	4770      	bx	lr
 8002966:	230f      	movs	r3, #15
 8002968:	e7f3      	b.n	8002952 <USB_SetTurnaroundTime+0x6e>
 800296a:	230e      	movs	r3, #14
 800296c:	e7f1      	b.n	8002952 <USB_SetTurnaroundTime+0x6e>
 800296e:	230d      	movs	r3, #13
 8002970:	e7ef      	b.n	8002952 <USB_SetTurnaroundTime+0x6e>
 8002972:	230c      	movs	r3, #12
 8002974:	e7ed      	b.n	8002952 <USB_SetTurnaroundTime+0x6e>
 8002976:	230b      	movs	r3, #11
 8002978:	e7eb      	b.n	8002952 <USB_SetTurnaroundTime+0x6e>
 800297a:	230a      	movs	r3, #10
 800297c:	e7e9      	b.n	8002952 <USB_SetTurnaroundTime+0x6e>
 800297e:	2309      	movs	r3, #9
 8002980:	e7e7      	b.n	8002952 <USB_SetTurnaroundTime+0x6e>
 8002982:	2308      	movs	r3, #8
 8002984:	e7e5      	b.n	8002952 <USB_SetTurnaroundTime+0x6e>
 8002986:	bf00      	nop
 8002988:	ff275340 	.word	0xff275340
 800298c:	000c34ff 	.word	0x000c34ff
 8002990:	ff1b1e40 	.word	0xff1b1e40
 8002994:	000f423f 	.word	0x000f423f
 8002998:	00124f7f 	.word	0x00124f7f
 800299c:	0013d620 	.word	0x0013d620
 80029a0:	fee5b660 	.word	0xfee5b660
 80029a4:	0016e35f 	.word	0x0016e35f
 80029a8:	feced300 	.word	0xfeced300
 80029ac:	001b7740 	.word	0x001b7740
 80029b0:	feb35bc0 	.word	0xfeb35bc0
 80029b4:	002191c0 	.word	0x002191c0
 80029b8:	00387520 	.word	0x00387520
 80029bc:	fe5954e0 	.word	0xfe5954e0
 80029c0:	00419ce0 	.word	0x00419ce0

080029c4 <USB_EnableGlobalInt>:
 80029c4:	6883      	ldr	r3, [r0, #8]
 80029c6:	f043 0301 	orr.w	r3, r3, #1
 80029ca:	6083      	str	r3, [r0, #8]
 80029cc:	2000      	movs	r0, #0
 80029ce:	4770      	bx	lr

080029d0 <USB_DisableGlobalInt>:
 80029d0:	6883      	ldr	r3, [r0, #8]
 80029d2:	f023 0301 	bic.w	r3, r3, #1
 80029d6:	6083      	str	r3, [r0, #8]
 80029d8:	2000      	movs	r0, #0
 80029da:	4770      	bx	lr

080029dc <USB_SetCurrentMode>:
 80029dc:	b538      	push	{r3, r4, r5, lr}
 80029de:	68c3      	ldr	r3, [r0, #12]
 80029e0:	2901      	cmp	r1, #1
 80029e2:	f023 43c0 	bic.w	r3, r3, #1610612736	; 0x60000000
 80029e6:	4605      	mov	r5, r0
 80029e8:	60c3      	str	r3, [r0, #12]
 80029ea:	d110      	bne.n	8002a0e <USB_SetCurrentMode+0x32>
 80029ec:	68c3      	ldr	r3, [r0, #12]
 80029ee:	f043 5300 	orr.w	r3, r3, #536870912	; 0x20000000
 80029f2:	60c3      	str	r3, [r0, #12]
 80029f4:	2400      	movs	r4, #0
 80029f6:	2001      	movs	r0, #1
 80029f8:	f7fe f8dc 	bl	8000bb4 <HAL_Delay>
 80029fc:	696b      	ldr	r3, [r5, #20]
 80029fe:	07d9      	lsls	r1, r3, #31
 8002a00:	f104 0401 	add.w	r4, r4, #1
 8002a04:	d415      	bmi.n	8002a32 <USB_SetCurrentMode+0x56>
 8002a06:	2c32      	cmp	r4, #50	; 0x32
 8002a08:	d1f5      	bne.n	80029f6 <USB_SetCurrentMode+0x1a>
 8002a0a:	2001      	movs	r0, #1
 8002a0c:	bd38      	pop	{r3, r4, r5, pc}
 8002a0e:	2900      	cmp	r1, #0
 8002a10:	d1fb      	bne.n	8002a0a <USB_SetCurrentMode+0x2e>
 8002a12:	68c3      	ldr	r3, [r0, #12]
 8002a14:	f043 4380 	orr.w	r3, r3, #1073741824	; 0x40000000
 8002a18:	60c3      	str	r3, [r0, #12]
 8002a1a:	460c      	mov	r4, r1
 8002a1c:	2001      	movs	r0, #1
 8002a1e:	f7fe f8c9 	bl	8000bb4 <HAL_Delay>
 8002a22:	696b      	ldr	r3, [r5, #20]
 8002a24:	07da      	lsls	r2, r3, #31
 8002a26:	f104 0401 	add.w	r4, r4, #1
 8002a2a:	d502      	bpl.n	8002a32 <USB_SetCurrentMode+0x56>
 8002a2c:	2c32      	cmp	r4, #50	; 0x32
 8002a2e:	d1f5      	bne.n	8002a1c <USB_SetCurrentMode+0x40>
 8002a30:	e7eb      	b.n	8002a0a <USB_SetCurrentMode+0x2e>
 8002a32:	f1a4 0332 	sub.w	r3, r4, #50	; 0x32
 8002a36:	4258      	negs	r0, r3
 8002a38:	4158      	adcs	r0, r3
 8002a3a:	e7e7      	b.n	8002a0c <USB_SetCurrentMode+0x30>

08002a3c <USB_FlushTxFifo>:
 8002a3c:	b082      	sub	sp, #8
 8002a3e:	2300      	movs	r3, #0
 8002a40:	4a10      	ldr	r2, [pc, #64]	; (8002a84 <USB_FlushTxFifo+0x48>)
 8002a42:	9301      	str	r3, [sp, #4]
 8002a44:	9b01      	ldr	r3, [sp, #4]
 8002a46:	3301      	adds	r3, #1
 8002a48:	9301      	str	r3, [sp, #4]
 8002a4a:	9b01      	ldr	r3, [sp, #4]
 8002a4c:	4293      	cmp	r3, r2
 8002a4e:	d816      	bhi.n	8002a7e <USB_FlushTxFifo+0x42>
 8002a50:	6903      	ldr	r3, [r0, #16]
 8002a52:	2b00      	cmp	r3, #0
 8002a54:	daf6      	bge.n	8002a44 <USB_FlushTxFifo+0x8>
 8002a56:	0189      	lsls	r1, r1, #6
 8002a58:	2300      	movs	r3, #0
 8002a5a:	f041 0120 	orr.w	r1, r1, #32
 8002a5e:	4a09      	ldr	r2, [pc, #36]	; (8002a84 <USB_FlushTxFifo+0x48>)
 8002a60:	9301      	str	r3, [sp, #4]
 8002a62:	6101      	str	r1, [r0, #16]
 8002a64:	9b01      	ldr	r3, [sp, #4]
 8002a66:	3301      	adds	r3, #1
 8002a68:	9301      	str	r3, [sp, #4]
 8002a6a:	9b01      	ldr	r3, [sp, #4]
 8002a6c:	4293      	cmp	r3, r2
 8002a6e:	d806      	bhi.n	8002a7e <USB_FlushTxFifo+0x42>
 8002a70:	6903      	ldr	r3, [r0, #16]
 8002a72:	f013 0320 	ands.w	r3, r3, #32
 8002a76:	d1f5      	bne.n	8002a64 <USB_FlushTxFifo+0x28>
 8002a78:	4618      	mov	r0, r3
 8002a7a:	b002      	add	sp, #8
 8002a7c:	4770      	bx	lr
 8002a7e:	2003      	movs	r0, #3
 8002a80:	e7fb      	b.n	8002a7a <USB_FlushTxFifo+0x3e>
 8002a82:	bf00      	nop
 8002a84:	00030d40 	.word	0x00030d40

08002a88 <USB_FlushRxFifo>:
 8002a88:	b082      	sub	sp, #8
 8002a8a:	2300      	movs	r3, #0
 8002a8c:	4a0f      	ldr	r2, [pc, #60]	; (8002acc <USB_FlushRxFifo+0x44>)
 8002a8e:	9301      	str	r3, [sp, #4]
 8002a90:	9b01      	ldr	r3, [sp, #4]
 8002a92:	3301      	adds	r3, #1
 8002a94:	9301      	str	r3, [sp, #4]
 8002a96:	9b01      	ldr	r3, [sp, #4]
 8002a98:	4293      	cmp	r3, r2
 8002a9a:	d814      	bhi.n	8002ac6 <USB_FlushRxFifo+0x3e>
 8002a9c:	6903      	ldr	r3, [r0, #16]
 8002a9e:	2b00      	cmp	r3, #0
 8002aa0:	daf6      	bge.n	8002a90 <USB_FlushRxFifo+0x8>
 8002aa2:	2300      	movs	r3, #0
 8002aa4:	9301      	str	r3, [sp, #4]
 8002aa6:	4a09      	ldr	r2, [pc, #36]	; (8002acc <USB_FlushRxFifo+0x44>)
 8002aa8:	2310      	movs	r3, #16
 8002aaa:	6103      	str	r3, [r0, #16]
 8002aac:	9b01      	ldr	r3, [sp, #4]
 8002aae:	3301      	adds	r3, #1
 8002ab0:	9301      	str	r3, [sp, #4]
 8002ab2:	9b01      	ldr	r3, [sp, #4]
 8002ab4:	4293      	cmp	r3, r2
 8002ab6:	d806      	bhi.n	8002ac6 <USB_FlushRxFifo+0x3e>
 8002ab8:	6903      	ldr	r3, [r0, #16]
 8002aba:	f013 0310 	ands.w	r3, r3, #16
 8002abe:	d1f5      	bne.n	8002aac <USB_FlushRxFifo+0x24>
 8002ac0:	4618      	mov	r0, r3
 8002ac2:	b002      	add	sp, #8
 8002ac4:	4770      	bx	lr
 8002ac6:	2003      	movs	r0, #3
 8002ac8:	e7fb      	b.n	8002ac2 <USB_FlushRxFifo+0x3a>
 8002aca:	bf00      	nop
 8002acc:	00030d40 	.word	0x00030d40

08002ad0 <USB_SetDevSpeed>:
 8002ad0:	f8d0 3800 	ldr.w	r3, [r0, #2048]	; 0x800
 8002ad4:	4319      	orrs	r1, r3
 8002ad6:	f8c0 1800 	str.w	r1, [r0, #2048]	; 0x800
 8002ada:	2000      	movs	r0, #0
 8002adc:	4770      	bx	lr
	...

08002ae0 <USB_DevInit>:
 8002ae0:	b084      	sub	sp, #16
 8002ae2:	e92d 43f8 	stmdb	sp!, {r3, r4, r5, r6, r7, r8, r9, lr}
 8002ae6:	4604      	mov	r4, r0
 8002ae8:	a809      	add	r0, sp, #36	; 0x24
 8002aea:	e880 000e 	stmia.w	r0, {r1, r2, r3}
 8002aee:	9d13      	ldr	r5, [sp, #76]	; 0x4c
 8002af0:	2300      	movs	r3, #0
 8002af2:	460e      	mov	r6, r1
 8002af4:	4619      	mov	r1, r3
 8002af6:	f103 0240 	add.w	r2, r3, #64	; 0x40
 8002afa:	eb04 0282 	add.w	r2, r4, r2, lsl #2
 8002afe:	3301      	adds	r3, #1
 8002b00:	2b0f      	cmp	r3, #15
 8002b02:	6051      	str	r1, [r2, #4]
 8002b04:	d1f7      	bne.n	8002af6 <USB_DevInit+0x16>
 8002b06:	f504 6700 	add.w	r7, r4, #2048	; 0x800
 8002b0a:	2d00      	cmp	r5, #0
 8002b0c:	d16c      	bne.n	8002be8 <USB_DevInit+0x108>
 8002b0e:	687b      	ldr	r3, [r7, #4]
 8002b10:	f043 0302 	orr.w	r3, r3, #2
 8002b14:	607b      	str	r3, [r7, #4]
 8002b16:	6ba3      	ldr	r3, [r4, #56]	; 0x38
 8002b18:	f423 1300 	bic.w	r3, r3, #2097152	; 0x200000
 8002b1c:	63a3      	str	r3, [r4, #56]	; 0x38
 8002b1e:	6823      	ldr	r3, [r4, #0]
 8002b20:	f043 0340 	orr.w	r3, r3, #64	; 0x40
 8002b24:	6023      	str	r3, [r4, #0]
 8002b26:	6823      	ldr	r3, [r4, #0]
 8002b28:	f043 0380 	orr.w	r3, r3, #128	; 0x80
 8002b2c:	6023      	str	r3, [r4, #0]
 8002b2e:	2300      	movs	r3, #0
 8002b30:	f8c4 3e00 	str.w	r3, [r4, #3584]	; 0xe00
 8002b34:	f8d4 3800 	ldr.w	r3, [r4, #2048]	; 0x800
 8002b38:	f8c4 3800 	str.w	r3, [r4, #2048]	; 0x800
 8002b3c:	9b0e      	ldr	r3, [sp, #56]	; 0x38
 8002b3e:	2b01      	cmp	r3, #1
 8002b40:	d159      	bne.n	8002bf6 <USB_DevInit+0x116>
 8002b42:	990b      	ldr	r1, [sp, #44]	; 0x2c
 8002b44:	2900      	cmp	r1, #0
 8002b46:	d154      	bne.n	8002bf2 <USB_DevInit+0x112>
 8002b48:	4620      	mov	r0, r4
 8002b4a:	f7ff ffc1 	bl	8002ad0 <USB_SetDevSpeed>
 8002b4e:	2110      	movs	r1, #16
 8002b50:	4620      	mov	r0, r4
 8002b52:	f7ff ff73 	bl	8002a3c <USB_FlushTxFifo>
 8002b56:	4601      	mov	r1, r0
 8002b58:	4620      	mov	r0, r4
 8002b5a:	f7ff ff95 	bl	8002a88 <USB_FlushRxFifo>
 8002b5e:	4308      	orrs	r0, r1
 8002b60:	b2c0      	uxtb	r0, r0
 8002b62:	2300      	movs	r3, #0
 8002b64:	3800      	subs	r0, #0
 8002b66:	613b      	str	r3, [r7, #16]
 8002b68:	bf18      	it	ne
 8002b6a:	2001      	movne	r0, #1
 8002b6c:	617b      	str	r3, [r7, #20]
 8002b6e:	f504 6210 	add.w	r2, r4, #2304	; 0x900
 8002b72:	61fb      	str	r3, [r7, #28]
 8002b74:	4619      	mov	r1, r3
 8002b76:	f04f 4c90 	mov.w	ip, #1207959552	; 0x48000000
 8002b7a:	f04f 6e00 	mov.w	lr, #134217728	; 0x8000000
 8002b7e:	f64f 387f 	movw	r8, #64383	; 0xfb7f
 8002b82:	42b3      	cmp	r3, r6
 8002b84:	d139      	bne.n	8002bfa <USB_DevInit+0x11a>
 8002b86:	2200      	movs	r2, #0
 8002b88:	f504 6330 	add.w	r3, r4, #2816	; 0xb00
 8002b8c:	4611      	mov	r1, r2
 8002b8e:	f04f 4c90 	mov.w	ip, #1207959552	; 0x48000000
 8002b92:	f04f 6e00 	mov.w	lr, #134217728	; 0x8000000
 8002b96:	f64f 387f 	movw	r8, #64383	; 0xfb7f
 8002b9a:	42b2      	cmp	r2, r6
 8002b9c:	d140      	bne.n	8002c20 <USB_DevInit+0x140>
 8002b9e:	693b      	ldr	r3, [r7, #16]
 8002ba0:	f423 7380 	bic.w	r3, r3, #256	; 0x100
 8002ba4:	613b      	str	r3, [r7, #16]
 8002ba6:	2300      	movs	r3, #0
 8002ba8:	61a3      	str	r3, [r4, #24]
 8002baa:	f06f 4380 	mvn.w	r3, #1073741824	; 0x40000000
 8002bae:	6163      	str	r3, [r4, #20]
 8002bb0:	9b0c      	ldr	r3, [sp, #48]	; 0x30
 8002bb2:	b91b      	cbnz	r3, 8002bbc <USB_DevInit+0xdc>
 8002bb4:	69a3      	ldr	r3, [r4, #24]
 8002bb6:	f043 0310 	orr.w	r3, r3, #16
 8002bba:	61a3      	str	r3, [r4, #24]
 8002bbc:	69a2      	ldr	r2, [r4, #24]
 8002bbe:	4b22      	ldr	r3, [pc, #136]	; (8002c48 <USB_DevInit+0x168>)
 8002bc0:	4313      	orrs	r3, r2
 8002bc2:	61a3      	str	r3, [r4, #24]
 8002bc4:	9b0f      	ldr	r3, [sp, #60]	; 0x3c
 8002bc6:	b11b      	cbz	r3, 8002bd0 <USB_DevInit+0xf0>
 8002bc8:	69a3      	ldr	r3, [r4, #24]
 8002bca:	f043 0308 	orr.w	r3, r3, #8
 8002bce:	61a3      	str	r3, [r4, #24]
 8002bd0:	2d01      	cmp	r5, #1
 8002bd2:	bf01      	itttt	eq
 8002bd4:	69a3      	ldreq	r3, [r4, #24]
 8002bd6:	f043 4380 	orreq.w	r3, r3, #1073741824	; 0x40000000
 8002bda:	f043 0304 	orreq.w	r3, r3, #4
 8002bde:	61a3      	streq	r3, [r4, #24]
 8002be0:	e8bd 43f8 	ldmia.w	sp!, {r3, r4, r5, r6, r7, r8, r9, lr}
 8002be4:	b004      	add	sp, #16
 8002be6:	4770      	bx	lr
 8002be8:	6ba3      	ldr	r3, [r4, #56]	; 0x38
 8002bea:	f443 1300 	orr.w	r3, r3, #2097152	; 0x200000
 8002bee:	63a3      	str	r3, [r4, #56]	; 0x38
 8002bf0:	e79d      	b.n	8002b2e <USB_DevInit+0x4e>
 8002bf2:	4619      	mov	r1, r3
 8002bf4:	e7a8      	b.n	8002b48 <USB_DevInit+0x68>
 8002bf6:	2103      	movs	r1, #3
 8002bf8:	e7a6      	b.n	8002b48 <USB_DevInit+0x68>
 8002bfa:	f8d2 9000 	ldr.w	r9, [r2]
 8002bfe:	f1b9 0f00 	cmp.w	r9, #0
 8002c02:	da0b      	bge.n	8002c1c <USB_DevInit+0x13c>
 8002c04:	b93b      	cbnz	r3, 8002c16 <USB_DevInit+0x136>
 8002c06:	f8c2 e000 	str.w	lr, [r2]
 8002c0a:	6111      	str	r1, [r2, #16]
 8002c0c:	3301      	adds	r3, #1
 8002c0e:	f8c2 8008 	str.w	r8, [r2, #8]
 8002c12:	3220      	adds	r2, #32
 8002c14:	e7b5      	b.n	8002b82 <USB_DevInit+0xa2>
 8002c16:	f8c2 c000 	str.w	ip, [r2]
 8002c1a:	e7f6      	b.n	8002c0a <USB_DevInit+0x12a>
 8002c1c:	6011      	str	r1, [r2, #0]
 8002c1e:	e7f4      	b.n	8002c0a <USB_DevInit+0x12a>
 8002c20:	f8d3 9000 	ldr.w	r9, [r3]
 8002c24:	f1b9 0f00 	cmp.w	r9, #0
 8002c28:	da0b      	bge.n	8002c42 <USB_DevInit+0x162>
 8002c2a:	b93a      	cbnz	r2, 8002c3c <USB_DevInit+0x15c>
 8002c2c:	f8c3 e000 	str.w	lr, [r3]
 8002c30:	6119      	str	r1, [r3, #16]
 8002c32:	3201      	adds	r2, #1
 8002c34:	f8c3 8008 	str.w	r8, [r3, #8]
 8002c38:	3320      	adds	r3, #32
 8002c3a:	e7ae      	b.n	8002b9a <USB_DevInit+0xba>
 8002c3c:	f8c3 c000 	str.w	ip, [r3]
 8002c40:	e7f6      	b.n	8002c30 <USB_DevInit+0x150>
 8002c42:	6019      	str	r1, [r3, #0]
 8002c44:	e7f4      	b.n	8002c30 <USB_DevInit+0x150>
 8002c46:	bf00      	nop
 8002c48:	803c3800 	.word	0x803c3800

08002c4c <USB_GetDevSpeed>:
 8002c4c:	f8d0 3808 	ldr.w	r3, [r0, #2056]	; 0x808
 8002c50:	f013 0006 	ands.w	r0, r3, #6
 8002c54:	d004      	beq.n	8002c60 <USB_GetDevSpeed+0x14>
 8002c56:	f013 0f02 	tst.w	r3, #2
 8002c5a:	bf14      	ite	ne
 8002c5c:	2002      	movne	r0, #2
 8002c5e:	200f      	moveq	r0, #15
 8002c60:	4770      	bx	lr

08002c62 <USB_ActivateEndpoint>:
 8002c62:	b530      	push	{r4, r5, lr}
 8002c64:	780c      	ldrb	r4, [r1, #0]
 8002c66:	2201      	movs	r2, #1
 8002c68:	f004 050f 	and.w	r5, r4, #15
 8002c6c:	40aa      	lsls	r2, r5
 8002c6e:	784d      	ldrb	r5, [r1, #1]
 8002c70:	2d01      	cmp	r5, #1
 8002c72:	f500 6300 	add.w	r3, r0, #2048	; 0x800
 8002c76:	eb00 1044 	add.w	r0, r0, r4, lsl #5
 8002c7a:	d119      	bne.n	8002cb0 <USB_ActivateEndpoint+0x4e>
 8002c7c:	69dd      	ldr	r5, [r3, #28]
 8002c7e:	432a      	orrs	r2, r5
 8002c80:	61da      	str	r2, [r3, #28]
 8002c82:	f8d0 3900 	ldr.w	r3, [r0, #2304]	; 0x900
 8002c86:	041a      	lsls	r2, r3, #16
 8002c88:	d410      	bmi.n	8002cac <USB_ActivateEndpoint+0x4a>
 8002c8a:	68ca      	ldr	r2, [r1, #12]
 8002c8c:	f8d0 5900 	ldr.w	r5, [r0, #2304]	; 0x900
 8002c90:	f3c2 030a 	ubfx	r3, r2, #0, #11
 8002c94:	790a      	ldrb	r2, [r1, #4]
 8002c96:	432b      	orrs	r3, r5
 8002c98:	ea43 4382 	orr.w	r3, r3, r2, lsl #18
 8002c9c:	ea43 5384 	orr.w	r3, r3, r4, lsl #22
 8002ca0:	f043 5380 	orr.w	r3, r3, #268435456	; 0x10000000
 8002ca4:	f443 4300 	orr.w	r3, r3, #32768	; 0x8000
 8002ca8:	f8c0 3900 	str.w	r3, [r0, #2304]	; 0x900
 8002cac:	2000      	movs	r0, #0
 8002cae:	bd30      	pop	{r4, r5, pc}
 8002cb0:	69dc      	ldr	r4, [r3, #28]
 8002cb2:	ea44 4202 	orr.w	r2, r4, r2, lsl #16
 8002cb6:	61da      	str	r2, [r3, #28]
 8002cb8:	f8d0 3b00 	ldr.w	r3, [r0, #2816]	; 0xb00
 8002cbc:	041b      	lsls	r3, r3, #16
 8002cbe:	d4f5      	bmi.n	8002cac <USB_ActivateEndpoint+0x4a>
 8002cc0:	68cb      	ldr	r3, [r1, #12]
 8002cc2:	f8d0 2b00 	ldr.w	r2, [r0, #2816]	; 0xb00
 8002cc6:	f3c3 030a 	ubfx	r3, r3, #0, #11
 8002cca:	4313      	orrs	r3, r2
 8002ccc:	790a      	ldrb	r2, [r1, #4]
 8002cce:	ea43 4382 	orr.w	r3, r3, r2, lsl #18
 8002cd2:	f043 5380 	orr.w	r3, r3, #268435456	; 0x10000000
 8002cd6:	f443 4300 	orr.w	r3, r3, #32768	; 0x8000
 8002cda:	f8c0 3b00 	str.w	r3, [r0, #2816]	; 0xb00
 8002cde:	e7e5      	b.n	8002cac <USB_ActivateEndpoint+0x4a>

08002ce0 <USB_DeactivateEndpoint>:
 8002ce0:	b510      	push	{r4, lr}
 8002ce2:	780a      	ldrb	r2, [r1, #0]
 8002ce4:	7849      	ldrb	r1, [r1, #1]
 8002ce6:	2901      	cmp	r1, #1
 8002ce8:	eb00 1342 	add.w	r3, r0, r2, lsl #5
 8002cec:	f500 6000 	add.w	r0, r0, #2048	; 0x800
 8002cf0:	f002 020f 	and.w	r2, r2, #15
 8002cf4:	d122      	bne.n	8002d3c <USB_DeactivateEndpoint+0x5c>
 8002cf6:	f8d3 1900 	ldr.w	r1, [r3, #2304]	; 0x900
 8002cfa:	2900      	cmp	r1, #0
 8002cfc:	da0b      	bge.n	8002d16 <USB_DeactivateEndpoint+0x36>
 8002cfe:	f8d3 1900 	ldr.w	r1, [r3, #2304]	; 0x900
 8002d02:	f041 6100 	orr.w	r1, r1, #134217728	; 0x8000000
 8002d06:	f8c3 1900 	str.w	r1, [r3, #2304]	; 0x900
 8002d0a:	f8d3 1900 	ldr.w	r1, [r3, #2304]	; 0x900
 8002d0e:	f041 4180 	orr.w	r1, r1, #1073741824	; 0x40000000
 8002d12:	f8c3 1900 	str.w	r1, [r3, #2304]	; 0x900
 8002d16:	6bc4      	ldr	r4, [r0, #60]	; 0x3c
 8002d18:	2101      	movs	r1, #1
 8002d1a:	fa01 f202 	lsl.w	r2, r1, r2
 8002d1e:	ea24 0402 	bic.w	r4, r4, r2
 8002d22:	63c4      	str	r4, [r0, #60]	; 0x3c
 8002d24:	69c1      	ldr	r1, [r0, #28]
 8002d26:	ea21 0202 	bic.w	r2, r1, r2
 8002d2a:	61c2      	str	r2, [r0, #28]
 8002d2c:	f8d3 1900 	ldr.w	r1, [r3, #2304]	; 0x900
 8002d30:	4a14      	ldr	r2, [pc, #80]	; (8002d84 <USB_DeactivateEndpoint+0xa4>)
 8002d32:	400a      	ands	r2, r1
 8002d34:	f8c3 2900 	str.w	r2, [r3, #2304]	; 0x900
 8002d38:	2000      	movs	r0, #0
 8002d3a:	bd10      	pop	{r4, pc}
 8002d3c:	f8d3 1b00 	ldr.w	r1, [r3, #2816]	; 0xb00
 8002d40:	2900      	cmp	r1, #0
 8002d42:	da0b      	bge.n	8002d5c <USB_DeactivateEndpoint+0x7c>
 8002d44:	f8d3 1b00 	ldr.w	r1, [r3, #2816]	; 0xb00
 8002d48:	f041 6100 	orr.w	r1, r1, #134217728	; 0x8000000
 8002d4c:	f8c3 1b00 	str.w	r1, [r3, #2816]	; 0xb00
 8002d50:	f8d3 1b00 	ldr.w	r1, [r3, #2816]	; 0xb00
 8002d54:	f041 4180 	orr.w	r1, r1, #1073741824	; 0x40000000
 8002d58:	f8c3 1b00 	str.w	r1, [r3, #2816]	; 0xb00
 8002d5c:	6bc4      	ldr	r4, [r0, #60]	; 0x3c
 8002d5e:	f44f 3180 	mov.w	r1, #65536	; 0x10000
 8002d62:	fa01 f202 	lsl.w	r2, r1, r2
 8002d66:	ea24 0402 	bic.w	r4, r4, r2
 8002d6a:	63c4      	str	r4, [r0, #60]	; 0x3c
 8002d6c:	69c1      	ldr	r1, [r0, #28]
 8002d6e:	ea21 0202 	bic.w	r2, r1, r2
 8002d72:	61c2      	str	r2, [r0, #28]
 8002d74:	f8d3 1b00 	ldr.w	r1, [r3, #2816]	; 0xb00
 8002d78:	4a03      	ldr	r2, [pc, #12]	; (8002d88 <USB_DeactivateEndpoint+0xa8>)
 8002d7a:	400a      	ands	r2, r1
 8002d7c:	f8c3 2b00 	str.w	r2, [r3, #2816]	; 0xb00
 8002d80:	e7da      	b.n	8002d38 <USB_DeactivateEndpoint+0x58>
 8002d82:	bf00      	nop
 8002d84:	ec337800 	.word	0xec337800
 8002d88:	eff37800 	.word	0xeff37800

08002d8c <USB_EP0StartXfer>:
 8002d8c:	784b      	ldrb	r3, [r1, #1]
 8002d8e:	f8df c0f0 	ldr.w	ip, [pc, #240]	; 8002e80 <USB_EP0StartXfer+0xf4>
 8002d92:	b5f0      	push	{r4, r5, r6, r7, lr}
 8002d94:	780e      	ldrb	r6, [r1, #0]
 8002d96:	698d      	ldr	r5, [r1, #24]
 8002d98:	4f38      	ldr	r7, [pc, #224]	; (8002e7c <USB_EP0StartXfer+0xf0>)
 8002d9a:	2b01      	cmp	r3, #1
 8002d9c:	eb00 1446 	add.w	r4, r0, r6, lsl #5
 8002da0:	d146      	bne.n	8002e30 <USB_EP0StartXfer+0xa4>
 8002da2:	f504 6310 	add.w	r3, r4, #2304	; 0x900
 8002da6:	b9bd      	cbnz	r5, 8002dd8 <USB_EP0StartXfer+0x4c>
 8002da8:	691d      	ldr	r5, [r3, #16]
 8002daa:	403d      	ands	r5, r7
 8002dac:	611d      	str	r5, [r3, #16]
 8002dae:	691d      	ldr	r5, [r3, #16]
 8002db0:	f445 2500 	orr.w	r5, r5, #524288	; 0x80000
 8002db4:	611d      	str	r5, [r3, #16]
 8002db6:	691d      	ldr	r5, [r3, #16]
 8002db8:	ea05 050c 	and.w	r5, r5, ip
 8002dbc:	2a01      	cmp	r2, #1
 8002dbe:	611d      	str	r5, [r3, #16]
 8002dc0:	d123      	bne.n	8002e0a <USB_EP0StartXfer+0x7e>
 8002dc2:	694a      	ldr	r2, [r1, #20]
 8002dc4:	b102      	cbz	r2, 8002dc8 <USB_EP0StartXfer+0x3c>
 8002dc6:	615a      	str	r2, [r3, #20]
 8002dc8:	f8d4 3900 	ldr.w	r3, [r4, #2304]	; 0x900
 8002dcc:	f043 4304 	orr.w	r3, r3, #2214592512	; 0x84000000
 8002dd0:	f8c4 3900 	str.w	r3, [r4, #2304]	; 0x900
 8002dd4:	2000      	movs	r0, #0
 8002dd6:	bdf0      	pop	{r4, r5, r6, r7, pc}
 8002dd8:	f8d3 e010 	ldr.w	lr, [r3, #16]
 8002ddc:	ea0e 0c0c 	and.w	ip, lr, ip
 8002de0:	f8c3 c010 	str.w	ip, [r3, #16]
 8002de4:	f8d3 c010 	ldr.w	ip, [r3, #16]
 8002de8:	ea0c 0707 	and.w	r7, ip, r7
 8002dec:	611f      	str	r7, [r3, #16]
 8002dee:	68cf      	ldr	r7, [r1, #12]
 8002df0:	42af      	cmp	r7, r5
 8002df2:	691d      	ldr	r5, [r3, #16]
 8002df4:	bf38      	it	cc
 8002df6:	618f      	strcc	r7, [r1, #24]
 8002df8:	f445 2500 	orr.w	r5, r5, #524288	; 0x80000
 8002dfc:	611d      	str	r5, [r3, #16]
 8002dfe:	698d      	ldr	r5, [r1, #24]
 8002e00:	691f      	ldr	r7, [r3, #16]
 8002e02:	f3c5 0512 	ubfx	r5, r5, #0, #19
 8002e06:	433d      	orrs	r5, r7
 8002e08:	e7d8      	b.n	8002dbc <USB_EP0StartXfer+0x30>
 8002e0a:	f8d4 3900 	ldr.w	r3, [r4, #2304]	; 0x900
 8002e0e:	f043 4304 	orr.w	r3, r3, #2214592512	; 0x84000000
 8002e12:	f8c4 3900 	str.w	r3, [r4, #2304]	; 0x900
 8002e16:	698b      	ldr	r3, [r1, #24]
 8002e18:	2b00      	cmp	r3, #0
 8002e1a:	d0db      	beq.n	8002dd4 <USB_EP0StartXfer+0x48>
 8002e1c:	f8d0 2834 	ldr.w	r2, [r0, #2100]	; 0x834
 8002e20:	f006 060f 	and.w	r6, r6, #15
 8002e24:	2301      	movs	r3, #1
 8002e26:	40b3      	lsls	r3, r6
 8002e28:	4313      	orrs	r3, r2
 8002e2a:	f8c0 3834 	str.w	r3, [r0, #2100]	; 0x834
 8002e2e:	e7d1      	b.n	8002dd4 <USB_EP0StartXfer+0x48>
 8002e30:	f8d4 0b10 	ldr.w	r0, [r4, #2832]	; 0xb10
 8002e34:	ea00 000c 	and.w	r0, r0, ip
 8002e38:	f8c4 0b10 	str.w	r0, [r4, #2832]	; 0xb10
 8002e3c:	f8d4 0b10 	ldr.w	r0, [r4, #2832]	; 0xb10
 8002e40:	4038      	ands	r0, r7
 8002e42:	f504 6330 	add.w	r3, r4, #2816	; 0xb00
 8002e46:	6118      	str	r0, [r3, #16]
 8002e48:	68c8      	ldr	r0, [r1, #12]
 8002e4a:	b105      	cbz	r5, 8002e4e <USB_EP0StartXfer+0xc2>
 8002e4c:	6188      	str	r0, [r1, #24]
 8002e4e:	691d      	ldr	r5, [r3, #16]
 8002e50:	61c8      	str	r0, [r1, #28]
 8002e52:	f445 2500 	orr.w	r5, r5, #524288	; 0x80000
 8002e56:	611d      	str	r5, [r3, #16]
 8002e58:	691d      	ldr	r5, [r3, #16]
 8002e5a:	f3c0 0012 	ubfx	r0, r0, #0, #19
 8002e5e:	4328      	orrs	r0, r5
 8002e60:	2a01      	cmp	r2, #1
 8002e62:	6118      	str	r0, [r3, #16]
 8002e64:	d102      	bne.n	8002e6c <USB_EP0StartXfer+0xe0>
 8002e66:	690a      	ldr	r2, [r1, #16]
 8002e68:	b102      	cbz	r2, 8002e6c <USB_EP0StartXfer+0xe0>
 8002e6a:	615a      	str	r2, [r3, #20]
 8002e6c:	f8d4 3b00 	ldr.w	r3, [r4, #2816]	; 0xb00
 8002e70:	f043 4304 	orr.w	r3, r3, #2214592512	; 0x84000000
 8002e74:	f8c4 3b00 	str.w	r3, [r4, #2816]	; 0xb00
 8002e78:	e7ac      	b.n	8002dd4 <USB_EP0StartXfer+0x48>
 8002e7a:	bf00      	nop
 8002e7c:	e007ffff 	.word	0xe007ffff
 8002e80:	fff80000 	.word	0xfff80000

08002e84 <USB_EPStopXfer>:
 8002e84:	b082      	sub	sp, #8
 8002e86:	2300      	movs	r3, #0
 8002e88:	784a      	ldrb	r2, [r1, #1]
 8002e8a:	9301      	str	r3, [sp, #4]
 8002e8c:	780b      	ldrb	r3, [r1, #0]
 8002e8e:	2a01      	cmp	r2, #1
 8002e90:	ea4f 1343 	mov.w	r3, r3, lsl #5
 8002e94:	d11e      	bne.n	8002ed4 <USB_EPStopXfer+0x50>
 8002e96:	f500 6010 	add.w	r0, r0, #2304	; 0x900
 8002e9a:	18c1      	adds	r1, r0, r3
 8002e9c:	58c2      	ldr	r2, [r0, r3]
 8002e9e:	2a00      	cmp	r2, #0
 8002ea0:	db02      	blt.n	8002ea8 <USB_EPStopXfer+0x24>
 8002ea2:	2000      	movs	r0, #0
 8002ea4:	b002      	add	sp, #8
 8002ea6:	4770      	bx	lr
 8002ea8:	58c2      	ldr	r2, [r0, r3]
 8002eaa:	f042 6200 	orr.w	r2, r2, #134217728	; 0x8000000
 8002eae:	50c2      	str	r2, [r0, r3]
 8002eb0:	58c2      	ldr	r2, [r0, r3]
 8002eb2:	f042 4280 	orr.w	r2, r2, #1073741824	; 0x40000000
 8002eb6:	50c2      	str	r2, [r0, r3]
 8002eb8:	f242 7210 	movw	r2, #10000	; 0x2710
 8002ebc:	9b01      	ldr	r3, [sp, #4]
 8002ebe:	3301      	adds	r3, #1
 8002ec0:	9301      	str	r3, [sp, #4]
 8002ec2:	9b01      	ldr	r3, [sp, #4]
 8002ec4:	4293      	cmp	r3, r2
 8002ec6:	d901      	bls.n	8002ecc <USB_EPStopXfer+0x48>
 8002ec8:	2001      	movs	r0, #1
 8002eca:	e7eb      	b.n	8002ea4 <USB_EPStopXfer+0x20>
 8002ecc:	680b      	ldr	r3, [r1, #0]
 8002ece:	2b00      	cmp	r3, #0
 8002ed0:	dbf4      	blt.n	8002ebc <USB_EPStopXfer+0x38>
 8002ed2:	e7e6      	b.n	8002ea2 <USB_EPStopXfer+0x1e>
 8002ed4:	f500 6030 	add.w	r0, r0, #2816	; 0xb00
 8002ed8:	18c1      	adds	r1, r0, r3
 8002eda:	58c2      	ldr	r2, [r0, r3]
 8002edc:	2a00      	cmp	r2, #0
 8002ede:	dae0      	bge.n	8002ea2 <USB_EPStopXfer+0x1e>
 8002ee0:	58c2      	ldr	r2, [r0, r3]
 8002ee2:	f042 6200 	orr.w	r2, r2, #134217728	; 0x8000000
 8002ee6:	50c2      	str	r2, [r0, r3]
 8002ee8:	58c2      	ldr	r2, [r0, r3]
 8002eea:	f042 4280 	orr.w	r2, r2, #1073741824	; 0x40000000
 8002eee:	50c2      	str	r2, [r0, r3]
 8002ef0:	f242 7210 	movw	r2, #10000	; 0x2710
 8002ef4:	9b01      	ldr	r3, [sp, #4]
 8002ef6:	3301      	adds	r3, #1
 8002ef8:	9301      	str	r3, [sp, #4]
 8002efa:	9b01      	ldr	r3, [sp, #4]
 8002efc:	4293      	cmp	r3, r2
 8002efe:	d8e3      	bhi.n	8002ec8 <USB_EPStopXfer+0x44>
 8002f00:	680b      	ldr	r3, [r1, #0]
 8002f02:	2b00      	cmp	r3, #0
 8002f04:	dbf6      	blt.n	8002ef4 <USB_EPStopXfer+0x70>
 8002f06:	e7cc      	b.n	8002ea2 <USB_EPStopXfer+0x1e>

08002f08 <USB_WritePacket>:
 8002f08:	b510      	push	{r4, lr}
 8002f0a:	f89d 4008 	ldrb.w	r4, [sp, #8]
 8002f0e:	b944      	cbnz	r4, 8002f22 <USB_WritePacket+0x1a>
 8002f10:	3303      	adds	r3, #3
 8002f12:	3201      	adds	r2, #1
 8002f14:	089b      	lsrs	r3, r3, #2
 8002f16:	eb00 3002 	add.w	r0, r0, r2, lsl #12
 8002f1a:	eb01 0383 	add.w	r3, r1, r3, lsl #2
 8002f1e:	428b      	cmp	r3, r1
 8002f20:	d101      	bne.n	8002f26 <USB_WritePacket+0x1e>
 8002f22:	2000      	movs	r0, #0
 8002f24:	bd10      	pop	{r4, pc}
 8002f26:	f851 2b04 	ldr.w	r2, [r1], #4
 8002f2a:	6002      	str	r2, [r0, #0]
 8002f2c:	e7f7      	b.n	8002f1e <USB_WritePacket+0x16>
	...

08002f30 <USB_EPStartXfer>:
 8002f30:	e92d 41f3 	stmdb	sp!, {r0, r1, r4, r5, r6, r7, r8, lr}
 8002f34:	784d      	ldrb	r5, [r1, #1]
 8002f36:	698b      	ldr	r3, [r1, #24]
 8002f38:	790f      	ldrb	r7, [r1, #4]
 8002f3a:	f8df c1bc 	ldr.w	ip, [pc, #444]	; 80030f8 <USB_EPStartXfer+0x1c8>
 8002f3e:	f8df e1bc 	ldr.w	lr, [pc, #444]	; 80030fc <USB_EPStartXfer+0x1cc>
 8002f42:	4616      	mov	r6, r2
 8002f44:	780a      	ldrb	r2, [r1, #0]
 8002f46:	2d01      	cmp	r5, #1
 8002f48:	eb00 1442 	add.w	r4, r0, r2, lsl #5
 8002f4c:	f040 808b 	bne.w	8003066 <USB_EPStartXfer+0x136>
 8002f50:	f504 6510 	add.w	r5, r4, #2304	; 0x900
 8002f54:	f8d5 8010 	ldr.w	r8, [r5, #16]
 8002f58:	bb6b      	cbnz	r3, 8002fb6 <USB_EPStartXfer+0x86>
 8002f5a:	ea08 0c0c 	and.w	ip, r8, ip
 8002f5e:	f8c5 c010 	str.w	ip, [r5, #16]
 8002f62:	f8d5 c010 	ldr.w	ip, [r5, #16]
 8002f66:	f44c 2c00 	orr.w	ip, ip, #524288	; 0x80000
 8002f6a:	f8c5 c010 	str.w	ip, [r5, #16]
 8002f6e:	f8d5 c010 	ldr.w	ip, [r5, #16]
 8002f72:	ea0c 0c0e 	and.w	ip, ip, lr
 8002f76:	f8c5 c010 	str.w	ip, [r5, #16]
 8002f7a:	2e01      	cmp	r6, #1
 8002f7c:	d14c      	bne.n	8003018 <USB_EPStartXfer+0xe8>
 8002f7e:	694b      	ldr	r3, [r1, #20]
 8002f80:	b103      	cbz	r3, 8002f84 <USB_EPStartXfer+0x54>
 8002f82:	616b      	str	r3, [r5, #20]
 8002f84:	2f01      	cmp	r7, #1
 8002f86:	d10c      	bne.n	8002fa2 <USB_EPStartXfer+0x72>
 8002f88:	f8d0 3808 	ldr.w	r3, [r0, #2056]	; 0x808
 8002f8c:	f413 7f80 	tst.w	r3, #256	; 0x100
 8002f90:	f8d4 3900 	ldr.w	r3, [r4, #2304]	; 0x900
 8002f94:	bf0c      	ite	eq
 8002f96:	f043 5300 	orreq.w	r3, r3, #536870912	; 0x20000000
 8002f9a:	f043 5380 	orrne.w	r3, r3, #268435456	; 0x10000000
 8002f9e:	f8c4 3900 	str.w	r3, [r4, #2304]	; 0x900
 8002fa2:	f8d4 3900 	ldr.w	r3, [r4, #2304]	; 0x900
 8002fa6:	f043 4304 	orr.w	r3, r3, #2214592512	; 0x84000000
 8002faa:	f8c4 3900 	str.w	r3, [r4, #2304]	; 0x900
 8002fae:	2000      	movs	r0, #0
 8002fb0:	b002      	add	sp, #8
 8002fb2:	e8bd 81f0 	ldmia.w	sp!, {r4, r5, r6, r7, r8, pc}
 8002fb6:	ea08 0e0e 	and.w	lr, r8, lr
 8002fba:	f8c5 e010 	str.w	lr, [r5, #16]
 8002fbe:	f8d5 e010 	ldr.w	lr, [r5, #16]
 8002fc2:	ea0e 0c0c 	and.w	ip, lr, ip
 8002fc6:	f8c5 c010 	str.w	ip, [r5, #16]
 8002fca:	f8d1 c00c 	ldr.w	ip, [r1, #12]
 8002fce:	f8d5 8010 	ldr.w	r8, [r5, #16]
 8002fd2:	eb0c 0e03 	add.w	lr, ip, r3
 8002fd6:	f10e 3eff 	add.w	lr, lr, #4294967295
 8002fda:	fbbe fefc 	udiv	lr, lr, ip
 8002fde:	f8df c120 	ldr.w	ip, [pc, #288]	; 8003100 <USB_EPStartXfer+0x1d0>
 8002fe2:	ea0c 4cce 	and.w	ip, ip, lr, lsl #19
 8002fe6:	ea4c 0c08 	orr.w	ip, ip, r8
 8002fea:	f8c5 c010 	str.w	ip, [r5, #16]
 8002fee:	f8d5 e010 	ldr.w	lr, [r5, #16]
 8002ff2:	f3c3 0c12 	ubfx	ip, r3, #0, #19
 8002ff6:	ea4c 0c0e 	orr.w	ip, ip, lr
 8002ffa:	2f01      	cmp	r7, #1
 8002ffc:	f8c5 c010 	str.w	ip, [r5, #16]
 8003000:	d1bb      	bne.n	8002f7a <USB_EPStartXfer+0x4a>
 8003002:	f8d5 c010 	ldr.w	ip, [r5, #16]
 8003006:	f02c 4cc0 	bic.w	ip, ip, #1610612736	; 0x60000000
 800300a:	f8c5 c010 	str.w	ip, [r5, #16]
 800300e:	f8d5 c010 	ldr.w	ip, [r5, #16]
 8003012:	f04c 5c00 	orr.w	ip, ip, #536870912	; 0x20000000
 8003016:	e7ae      	b.n	8002f76 <USB_EPStartXfer+0x46>
 8003018:	f8d4 5900 	ldr.w	r5, [r4, #2304]	; 0x900
 800301c:	2f01      	cmp	r7, #1
 800301e:	f045 4504 	orr.w	r5, r5, #2214592512	; 0x84000000
 8003022:	f8c4 5900 	str.w	r5, [r4, #2304]	; 0x900
 8003026:	d00b      	beq.n	8003040 <USB_EPStartXfer+0x110>
 8003028:	2b00      	cmp	r3, #0
 800302a:	d0c0      	beq.n	8002fae <USB_EPStartXfer+0x7e>
 800302c:	f8d0 1834 	ldr.w	r1, [r0, #2100]	; 0x834
 8003030:	f002 020f 	and.w	r2, r2, #15
 8003034:	2301      	movs	r3, #1
 8003036:	4093      	lsls	r3, r2
 8003038:	430b      	orrs	r3, r1
 800303a:	f8c0 3834 	str.w	r3, [r0, #2100]	; 0x834
 800303e:	e7b6      	b.n	8002fae <USB_EPStartXfer+0x7e>
 8003040:	f8d0 5808 	ldr.w	r5, [r0, #2056]	; 0x808
 8003044:	f415 7f80 	tst.w	r5, #256	; 0x100
 8003048:	f8d4 5900 	ldr.w	r5, [r4, #2304]	; 0x900
 800304c:	bf0c      	ite	eq
 800304e:	f045 5500 	orreq.w	r5, r5, #536870912	; 0x20000000
 8003052:	f045 5580 	orrne.w	r5, r5, #268435456	; 0x10000000
 8003056:	f8c4 5900 	str.w	r5, [r4, #2304]	; 0x900
 800305a:	9600      	str	r6, [sp, #0]
 800305c:	6909      	ldr	r1, [r1, #16]
 800305e:	b29b      	uxth	r3, r3
 8003060:	f7ff ff52 	bl	8002f08 <USB_WritePacket>
 8003064:	e7a3      	b.n	8002fae <USB_EPStartXfer+0x7e>
 8003066:	f8d4 5b10 	ldr.w	r5, [r4, #2832]	; 0xb10
 800306a:	ea05 050e 	and.w	r5, r5, lr
 800306e:	f8c4 5b10 	str.w	r5, [r4, #2832]	; 0xb10
 8003072:	f8d4 5b10 	ldr.w	r5, [r4, #2832]	; 0xb10
 8003076:	ea05 050c 	and.w	r5, r5, ip
 800307a:	f504 6230 	add.w	r2, r4, #2816	; 0xb00
 800307e:	6115      	str	r5, [r2, #16]
 8003080:	68cd      	ldr	r5, [r1, #12]
 8003082:	bb1b      	cbnz	r3, 80030cc <USB_EPStartXfer+0x19c>
 8003084:	6913      	ldr	r3, [r2, #16]
 8003086:	f3c5 0512 	ubfx	r5, r5, #0, #19
 800308a:	431d      	orrs	r5, r3
 800308c:	6115      	str	r5, [r2, #16]
 800308e:	6913      	ldr	r3, [r2, #16]
 8003090:	f443 2300 	orr.w	r3, r3, #524288	; 0x80000
 8003094:	6113      	str	r3, [r2, #16]
 8003096:	2e01      	cmp	r6, #1
 8003098:	d102      	bne.n	80030a0 <USB_EPStartXfer+0x170>
 800309a:	690b      	ldr	r3, [r1, #16]
 800309c:	b103      	cbz	r3, 80030a0 <USB_EPStartXfer+0x170>
 800309e:	6153      	str	r3, [r2, #20]
 80030a0:	2f01      	cmp	r7, #1
 80030a2:	d10c      	bne.n	80030be <USB_EPStartXfer+0x18e>
 80030a4:	f8d0 3808 	ldr.w	r3, [r0, #2056]	; 0x808
 80030a8:	f413 7f80 	tst.w	r3, #256	; 0x100
 80030ac:	f8d4 3b00 	ldr.w	r3, [r4, #2816]	; 0xb00
 80030b0:	bf0c      	ite	eq
 80030b2:	f043 5300 	orreq.w	r3, r3, #536870912	; 0x20000000
 80030b6:	f043 5380 	orrne.w	r3, r3, #268435456	; 0x10000000
 80030ba:	f8c4 3b00 	str.w	r3, [r4, #2816]	; 0xb00
 80030be:	f8d4 3b00 	ldr.w	r3, [r4, #2816]	; 0xb00
 80030c2:	f043 4304 	orr.w	r3, r3, #2214592512	; 0x84000000
 80030c6:	f8c4 3b00 	str.w	r3, [r4, #2816]	; 0xb00
 80030ca:	e770      	b.n	8002fae <USB_EPStartXfer+0x7e>
 80030cc:	442b      	add	r3, r5
 80030ce:	f8df c030 	ldr.w	ip, [pc, #48]	; 8003100 <USB_EPStartXfer+0x1d0>
 80030d2:	f8d2 e010 	ldr.w	lr, [r2, #16]
 80030d6:	3b01      	subs	r3, #1
 80030d8:	fbb3 f3f5 	udiv	r3, r3, r5
 80030dc:	b29b      	uxth	r3, r3
 80030de:	435d      	muls	r5, r3
 80030e0:	ea0c 43c3 	and.w	r3, ip, r3, lsl #19
 80030e4:	ea43 030e 	orr.w	r3, r3, lr
 80030e8:	61cd      	str	r5, [r1, #28]
 80030ea:	6113      	str	r3, [r2, #16]
 80030ec:	6913      	ldr	r3, [r2, #16]
 80030ee:	f3c5 0512 	ubfx	r5, r5, #0, #19
 80030f2:	431d      	orrs	r5, r3
 80030f4:	6115      	str	r5, [r2, #16]
 80030f6:	e7ce      	b.n	8003096 <USB_EPStartXfer+0x166>
 80030f8:	e007ffff 	.word	0xe007ffff
 80030fc:	fff80000 	.word	0xfff80000
 8003100:	1ff80000 	.word	0x1ff80000

08003104 <USB_ReadPacket>:
 8003104:	b570      	push	{r4, r5, r6, lr}
 8003106:	2300      	movs	r3, #0
 8003108:	0894      	lsrs	r4, r2, #2
 800310a:	f500 5580 	add.w	r5, r0, #4096	; 0x1000
 800310e:	f002 0203 	and.w	r2, r2, #3
 8003112:	42a3      	cmp	r3, r4
 8003114:	d311      	bcc.n	800313a <USB_ReadPacket+0x36>
 8003116:	eb01 0184 	add.w	r1, r1, r4, lsl #2
 800311a:	b162      	cbz	r2, 8003136 <USB_ReadPacket+0x32>
 800311c:	f500 5080 	add.w	r0, r0, #4096	; 0x1000
 8003120:	2300      	movs	r3, #0
 8003122:	6804      	ldr	r4, [r0, #0]
 8003124:	00d8      	lsls	r0, r3, #3
 8003126:	fa24 f000 	lsr.w	r0, r4, r0
 800312a:	54c8      	strb	r0, [r1, r3]
 800312c:	3301      	adds	r3, #1
 800312e:	b298      	uxth	r0, r3
 8003130:	4282      	cmp	r2, r0
 8003132:	d1f7      	bne.n	8003124 <USB_ReadPacket+0x20>
 8003134:	4411      	add	r1, r2
 8003136:	4608      	mov	r0, r1
 8003138:	bd70      	pop	{r4, r5, r6, pc}
 800313a:	682e      	ldr	r6, [r5, #0]
 800313c:	f841 6023 	str.w	r6, [r1, r3, lsl #2]
 8003140:	3301      	adds	r3, #1
 8003142:	e7e6      	b.n	8003112 <USB_ReadPacket+0xe>

08003144 <USB_EPSetStall>:
 8003144:	784a      	ldrb	r2, [r1, #1]
 8003146:	780b      	ldrb	r3, [r1, #0]
 8003148:	2a01      	cmp	r2, #1
 800314a:	eb00 1043 	add.w	r0, r0, r3, lsl #5
 800314e:	d112      	bne.n	8003176 <USB_EPSetStall+0x32>
 8003150:	f8d0 2900 	ldr.w	r2, [r0, #2304]	; 0x900
 8003154:	2a00      	cmp	r2, #0
 8003156:	db06      	blt.n	8003166 <USB_EPSetStall+0x22>
 8003158:	b12b      	cbz	r3, 8003166 <USB_EPSetStall+0x22>
 800315a:	f8d0 3900 	ldr.w	r3, [r0, #2304]	; 0x900
 800315e:	f023 4380 	bic.w	r3, r3, #1073741824	; 0x40000000
 8003162:	f8c0 3900 	str.w	r3, [r0, #2304]	; 0x900
 8003166:	f8d0 3900 	ldr.w	r3, [r0, #2304]	; 0x900
 800316a:	f443 1300 	orr.w	r3, r3, #2097152	; 0x200000
 800316e:	f8c0 3900 	str.w	r3, [r0, #2304]	; 0x900
 8003172:	2000      	movs	r0, #0
 8003174:	4770      	bx	lr
 8003176:	f8d0 2b00 	ldr.w	r2, [r0, #2816]	; 0xb00
 800317a:	2a00      	cmp	r2, #0
 800317c:	db06      	blt.n	800318c <USB_EPSetStall+0x48>
 800317e:	b12b      	cbz	r3, 800318c <USB_EPSetStall+0x48>
 8003180:	f8d0 3b00 	ldr.w	r3, [r0, #2816]	; 0xb00
 8003184:	f023 4380 	bic.w	r3, r3, #1073741824	; 0x40000000
 8003188:	f8c0 3b00 	str.w	r3, [r0, #2816]	; 0xb00
 800318c:	f8d0 3b00 	ldr.w	r3, [r0, #2816]	; 0xb00
 8003190:	f443 1300 	orr.w	r3, r3, #2097152	; 0x200000
 8003194:	f8c0 3b00 	str.w	r3, [r0, #2816]	; 0xb00
 8003198:	e7eb      	b.n	8003172 <USB_EPSetStall+0x2e>

0800319a <USB_EPClearStall>:
 800319a:	780b      	ldrb	r3, [r1, #0]
 800319c:	784a      	ldrb	r2, [r1, #1]
 800319e:	eb00 1043 	add.w	r0, r0, r3, lsl #5
 80031a2:	790b      	ldrb	r3, [r1, #4]
 80031a4:	2a01      	cmp	r2, #1
 80031a6:	f1a3 0302 	sub.w	r3, r3, #2
 80031aa:	b2db      	uxtb	r3, r3
 80031ac:	d10f      	bne.n	80031ce <USB_EPClearStall+0x34>
 80031ae:	f8d0 2900 	ldr.w	r2, [r0, #2304]	; 0x900
 80031b2:	2b01      	cmp	r3, #1
 80031b4:	f422 1200 	bic.w	r2, r2, #2097152	; 0x200000
 80031b8:	f8c0 2900 	str.w	r2, [r0, #2304]	; 0x900
 80031bc:	d805      	bhi.n	80031ca <USB_EPClearStall+0x30>
 80031be:	f8d0 3900 	ldr.w	r3, [r0, #2304]	; 0x900
 80031c2:	f043 5380 	orr.w	r3, r3, #268435456	; 0x10000000
 80031c6:	f8c0 3900 	str.w	r3, [r0, #2304]	; 0x900
 80031ca:	2000      	movs	r0, #0
 80031cc:	4770      	bx	lr
 80031ce:	f8d0 2b00 	ldr.w	r2, [r0, #2816]	; 0xb00
 80031d2:	f422 1200 	bic.w	r2, r2, #2097152	; 0x200000
 80031d6:	2b01      	cmp	r3, #1
 80031d8:	f8c0 2b00 	str.w	r2, [r0, #2816]	; 0xb00
 80031dc:	bf9e      	ittt	ls
 80031de:	f8d0 3b00 	ldrls.w	r3, [r0, #2816]	; 0xb00
 80031e2:	f043 5380 	orrls.w	r3, r3, #268435456	; 0x10000000
 80031e6:	f8c0 3b00 	strls.w	r3, [r0, #2816]	; 0xb00
 80031ea:	e7ee      	b.n	80031ca <USB_EPClearStall+0x30>

080031ec <USB_SetDevAddress>:
 80031ec:	f8d0 3800 	ldr.w	r3, [r0, #2048]	; 0x800
 80031f0:	f423 63fe 	bic.w	r3, r3, #2032	; 0x7f0
 80031f4:	f8c0 3800 	str.w	r3, [r0, #2048]	; 0x800
 80031f8:	f8d0 3800 	ldr.w	r3, [r0, #2048]	; 0x800
 80031fc:	0109      	lsls	r1, r1, #4
 80031fe:	f401 61fe 	and.w	r1, r1, #2032	; 0x7f0
 8003202:	4319      	orrs	r1, r3
 8003204:	f8c0 1800 	str.w	r1, [r0, #2048]	; 0x800
 8003208:	2000      	movs	r0, #0
 800320a:	4770      	bx	lr

0800320c <USB_DevConnect>:
 800320c:	f8d0 3e00 	ldr.w	r3, [r0, #3584]	; 0xe00
 8003210:	f023 0303 	bic.w	r3, r3, #3
 8003214:	f8c0 3e00 	str.w	r3, [r0, #3584]	; 0xe00
 8003218:	f8d0 3804 	ldr.w	r3, [r0, #2052]	; 0x804
 800321c:	f023 0302 	bic.w	r3, r3, #2
 8003220:	f8c0 3804 	str.w	r3, [r0, #2052]	; 0x804
 8003224:	2000      	movs	r0, #0
 8003226:	4770      	bx	lr

08003228 <USB_DevDisconnect>:
 8003228:	f8d0 3e00 	ldr.w	r3, [r0, #3584]	; 0xe00
 800322c:	f023 0303 	bic.w	r3, r3, #3
 8003230:	f8c0 3e00 	str.w	r3, [r0, #3584]	; 0xe00
 8003234:	f8d0 3804 	ldr.w	r3, [r0, #2052]	; 0x804
 8003238:	f043 0302 	orr.w	r3, r3, #2
 800323c:	f8c0 3804 	str.w	r3, [r0, #2052]	; 0x804
 8003240:	2000      	movs	r0, #0
 8003242:	4770      	bx	lr

08003244 <USB_ReadInterrupts>:
 8003244:	6942      	ldr	r2, [r0, #20]
 8003246:	6980      	ldr	r0, [r0, #24]
 8003248:	4010      	ands	r0, r2
 800324a:	4770      	bx	lr

0800324c <USB_ReadDevAllOutEpInterrupt>:
 800324c:	f8d0 3818 	ldr.w	r3, [r0, #2072]	; 0x818
 8003250:	f500 6000 	add.w	r0, r0, #2048	; 0x800
 8003254:	69c0      	ldr	r0, [r0, #28]
 8003256:	4018      	ands	r0, r3
 8003258:	0c00      	lsrs	r0, r0, #16
 800325a:	4770      	bx	lr

0800325c <USB_ReadDevAllInEpInterrupt>:
 800325c:	f8d0 3818 	ldr.w	r3, [r0, #2072]	; 0x818
 8003260:	f500 6000 	add.w	r0, r0, #2048	; 0x800
 8003264:	69c0      	ldr	r0, [r0, #28]
 8003266:	4018      	ands	r0, r3
 8003268:	b280      	uxth	r0, r0
 800326a:	4770      	bx	lr

0800326c <USB_ReadDevOutEPInterrupt>:
 800326c:	eb00 1141 	add.w	r1, r0, r1, lsl #5
 8003270:	f500 6000 	add.w	r0, r0, #2048	; 0x800
 8003274:	f8d1 2b08 	ldr.w	r2, [r1, #2824]	; 0xb08
 8003278:	6940      	ldr	r0, [r0, #20]
 800327a:	4010      	ands	r0, r2
 800327c:	4770      	bx	lr

0800327e <USB_ReadDevInEPInterrupt>:
 800327e:	f8d0 2810 	ldr.w	r2, [r0, #2064]	; 0x810
 8003282:	f8d0 3834 	ldr.w	r3, [r0, #2100]	; 0x834
 8003286:	eb00 1041 	add.w	r0, r0, r1, lsl #5
 800328a:	f001 010f 	and.w	r1, r1, #15
 800328e:	40cb      	lsrs	r3, r1
 8003290:	f500 6010 	add.w	r0, r0, #2304	; 0x900
 8003294:	01db      	lsls	r3, r3, #7
 8003296:	6880      	ldr	r0, [r0, #8]
 8003298:	b2db      	uxtb	r3, r3
 800329a:	4313      	orrs	r3, r2
 800329c:	4018      	ands	r0, r3
 800329e:	4770      	bx	lr

080032a0 <USB_GetMode>:
 80032a0:	6940      	ldr	r0, [r0, #20]
 80032a2:	f000 0001 	and.w	r0, r0, #1
 80032a6:	4770      	bx	lr

080032a8 <USB_ActivateSetup>:
 80032a8:	f8d0 3900 	ldr.w	r3, [r0, #2304]	; 0x900
 80032ac:	f423 63ff 	bic.w	r3, r3, #2040	; 0x7f8
 80032b0:	f023 0307 	bic.w	r3, r3, #7
 80032b4:	f8c0 3900 	str.w	r3, [r0, #2304]	; 0x900
 80032b8:	f8d0 3804 	ldr.w	r3, [r0, #2052]	; 0x804
 80032bc:	f443 7380 	orr.w	r3, r3, #256	; 0x100
 80032c0:	f8c0 3804 	str.w	r3, [r0, #2052]	; 0x804
 80032c4:	2000      	movs	r0, #0
 80032c6:	4770      	bx	lr

080032c8 <USB_EP0_OutStart>:
 80032c8:	b530      	push	{r4, r5, lr}
 80032ca:	6c05      	ldr	r5, [r0, #64]	; 0x40
 80032cc:	4c10      	ldr	r4, [pc, #64]	; (8003310 <USB_EP0_OutStart+0x48>)
 80032ce:	42a5      	cmp	r5, r4
 80032d0:	f500 6330 	add.w	r3, r0, #2816	; 0xb00
 80032d4:	d903      	bls.n	80032de <USB_EP0_OutStart+0x16>
 80032d6:	f8d0 4b00 	ldr.w	r4, [r0, #2816]	; 0xb00
 80032da:	2c00      	cmp	r4, #0
 80032dc:	db16      	blt.n	800330c <USB_EP0_OutStart+0x44>
 80032de:	2400      	movs	r4, #0
 80032e0:	611c      	str	r4, [r3, #16]
 80032e2:	691c      	ldr	r4, [r3, #16]
 80032e4:	f444 2400 	orr.w	r4, r4, #524288	; 0x80000
 80032e8:	611c      	str	r4, [r3, #16]
 80032ea:	691c      	ldr	r4, [r3, #16]
 80032ec:	f044 0418 	orr.w	r4, r4, #24
 80032f0:	611c      	str	r4, [r3, #16]
 80032f2:	691c      	ldr	r4, [r3, #16]
 80032f4:	2901      	cmp	r1, #1
 80032f6:	f044 44c0 	orr.w	r4, r4, #1610612736	; 0x60000000
 80032fa:	611c      	str	r4, [r3, #16]
 80032fc:	bf01      	itttt	eq
 80032fe:	615a      	streq	r2, [r3, #20]
 8003300:	f8d0 3b00 	ldreq.w	r3, [r0, #2816]	; 0xb00
 8003304:	f043 2380 	orreq.w	r3, r3, #2147516416	; 0x80008000
 8003308:	f8c0 3b00 	streq.w	r3, [r0, #2816]	; 0xb00
 800330c:	2000      	movs	r0, #0
 800330e:	bd30      	pop	{r4, r5, pc}
 8003310:	4f54300a 	.word	0x4f54300a

08003314 <USBD_CDC_EP0_RxReady>:
 8003314:	f8d0 32d4 	ldr.w	r3, [r0, #724]	; 0x2d4
 8003318:	eb00 0083 	add.w	r0, r0, r3, lsl #2
 800331c:	b510      	push	{r4, lr}
 800331e:	f8d0 42c0 	ldr.w	r4, [r0, #704]	; 0x2c0
 8003322:	b184      	cbz	r4, 8003346 <USBD_CDC_EP0_RxReady+0x32>
 8003324:	f8d0 32c4 	ldr.w	r3, [r0, #708]	; 0x2c4
 8003328:	b15b      	cbz	r3, 8003342 <USBD_CDC_EP0_RxReady+0x2e>
 800332a:	f894 0200 	ldrb.w	r0, [r4, #512]	; 0x200
 800332e:	28ff      	cmp	r0, #255	; 0xff
 8003330:	d007      	beq.n	8003342 <USBD_CDC_EP0_RxReady+0x2e>
 8003332:	689b      	ldr	r3, [r3, #8]
 8003334:	f894 2201 	ldrb.w	r2, [r4, #513]	; 0x201
 8003338:	4621      	mov	r1, r4
 800333a:	4798      	blx	r3
 800333c:	23ff      	movs	r3, #255	; 0xff
 800333e:	f884 3200 	strb.w	r3, [r4, #512]	; 0x200
 8003342:	2000      	movs	r0, #0
 8003344:	e000      	b.n	8003348 <USBD_CDC_EP0_RxReady+0x34>
 8003346:	2003      	movs	r0, #3
 8003348:	bd10      	pop	{r4, pc}
	...

0800334c <USBD_CDC_GetDeviceQualifierDescriptor>:
 800334c:	230a      	movs	r3, #10
 800334e:	8003      	strh	r3, [r0, #0]
 8003350:	4800      	ldr	r0, [pc, #0]	; (8003354 <USBD_CDC_GetDeviceQualifierDescriptor+0x8>)
 8003352:	4770      	bx	lr
 8003354:	20000088 	.word	0x20000088

08003358 <USBD_CDC_GetFSCfgDesc>:
 8003358:	b570      	push	{r4, r5, r6, lr}
 800335a:	2182      	movs	r1, #130	; 0x82
 800335c:	4606      	mov	r6, r0
 800335e:	480f      	ldr	r0, [pc, #60]	; (800339c <USBD_CDC_GetFSCfgDesc+0x44>)
 8003360:	f000 fb78 	bl	8003a54 <USBD_GetEpDesc>
 8003364:	2101      	movs	r1, #1
 8003366:	4605      	mov	r5, r0
 8003368:	480c      	ldr	r0, [pc, #48]	; (800339c <USBD_CDC_GetFSCfgDesc+0x44>)
 800336a:	f000 fb73 	bl	8003a54 <USBD_GetEpDesc>
 800336e:	2181      	movs	r1, #129	; 0x81
 8003370:	4604      	mov	r4, r0
 8003372:	480a      	ldr	r0, [pc, #40]	; (800339c <USBD_CDC_GetFSCfgDesc+0x44>)
 8003374:	f000 fb6e 	bl	8003a54 <USBD_GetEpDesc>
 8003378:	b10d      	cbz	r5, 800337e <USBD_CDC_GetFSCfgDesc+0x26>
 800337a:	2210      	movs	r2, #16
 800337c:	71aa      	strb	r2, [r5, #6]
 800337e:	b11c      	cbz	r4, 8003388 <USBD_CDC_GetFSCfgDesc+0x30>
 8003380:	2240      	movs	r2, #64	; 0x40
 8003382:	7122      	strb	r2, [r4, #4]
 8003384:	2200      	movs	r2, #0
 8003386:	7162      	strb	r2, [r4, #5]
 8003388:	b118      	cbz	r0, 8003392 <USBD_CDC_GetFSCfgDesc+0x3a>
 800338a:	2240      	movs	r2, #64	; 0x40
 800338c:	7102      	strb	r2, [r0, #4]
 800338e:	2200      	movs	r2, #0
 8003390:	7142      	strb	r2, [r0, #5]
 8003392:	2343      	movs	r3, #67	; 0x43
 8003394:	4801      	ldr	r0, [pc, #4]	; (800339c <USBD_CDC_GetFSCfgDesc+0x44>)
 8003396:	8033      	strh	r3, [r6, #0]
 8003398:	bd70      	pop	{r4, r5, r6, pc}
 800339a:	bf00      	nop
 800339c:	20000044 	.word	0x20000044

080033a0 <USBD_CDC_GetOtherSpeedCfgDesc>:
 80033a0:	f7ff bfda 	b.w	8003358 <USBD_CDC_GetFSCfgDesc>

080033a4 <USBD_CDC_GetHSCfgDesc>:
 80033a4:	b570      	push	{r4, r5, r6, lr}
 80033a6:	2182      	movs	r1, #130	; 0x82
 80033a8:	4606      	mov	r6, r0
 80033aa:	480f      	ldr	r0, [pc, #60]	; (80033e8 <USBD_CDC_GetHSCfgDesc+0x44>)
 80033ac:	f000 fb52 	bl	8003a54 <USBD_GetEpDesc>
 80033b0:	2101      	movs	r1, #1
 80033b2:	4605      	mov	r5, r0
 80033b4:	480c      	ldr	r0, [pc, #48]	; (80033e8 <USBD_CDC_GetHSCfgDesc+0x44>)
 80033b6:	f000 fb4d 	bl	8003a54 <USBD_GetEpDesc>
 80033ba:	2181      	movs	r1, #129	; 0x81
 80033bc:	4604      	mov	r4, r0
 80033be:	480a      	ldr	r0, [pc, #40]	; (80033e8 <USBD_CDC_GetHSCfgDesc+0x44>)
 80033c0:	f000 fb48 	bl	8003a54 <USBD_GetEpDesc>
 80033c4:	b10d      	cbz	r5, 80033ca <USBD_CDC_GetHSCfgDesc+0x26>
 80033c6:	2210      	movs	r2, #16
 80033c8:	71aa      	strb	r2, [r5, #6]
 80033ca:	b11c      	cbz	r4, 80033d4 <USBD_CDC_GetHSCfgDesc+0x30>
 80033cc:	2200      	movs	r2, #0
 80033ce:	7122      	strb	r2, [r4, #4]
 80033d0:	2202      	movs	r2, #2
 80033d2:	7162      	strb	r2, [r4, #5]
 80033d4:	b118      	cbz	r0, 80033de <USBD_CDC_GetHSCfgDesc+0x3a>
 80033d6:	2200      	movs	r2, #0
 80033d8:	7102      	strb	r2, [r0, #4]
 80033da:	2202      	movs	r2, #2
 80033dc:	7142      	strb	r2, [r0, #5]
 80033de:	2343      	movs	r3, #67	; 0x43
 80033e0:	4801      	ldr	r0, [pc, #4]	; (80033e8 <USBD_CDC_GetHSCfgDesc+0x44>)
 80033e2:	8033      	strh	r3, [r6, #0]
 80033e4:	bd70      	pop	{r4, r5, r6, pc}
 80033e6:	bf00      	nop
 80033e8:	20000044 	.word	0x20000044

080033ec <USBD_CDC_DataOut>:
 80033ec:	b538      	push	{r3, r4, r5, lr}
 80033ee:	f8d0 32d4 	ldr.w	r3, [r0, #724]	; 0x2d4
 80033f2:	33b0      	adds	r3, #176	; 0xb0
 80033f4:	4604      	mov	r4, r0
 80033f6:	f850 5023 	ldr.w	r5, [r0, r3, lsl #2]
 80033fa:	b18d      	cbz	r5, 8003420 <USBD_CDC_DataOut+0x34>
 80033fc:	f000 ff9d 	bl	800433a <USBD_LL_GetRxDataSize>
 8003400:	f8d4 32d4 	ldr.w	r3, [r4, #724]	; 0x2d4
 8003404:	f8c5 020c 	str.w	r0, [r5, #524]	; 0x20c
 8003408:	eb04 0483 	add.w	r4, r4, r3, lsl #2
 800340c:	f8d5 0204 	ldr.w	r0, [r5, #516]	; 0x204
 8003410:	f8d4 32c4 	ldr.w	r3, [r4, #708]	; 0x2c4
 8003414:	f505 7103 	add.w	r1, r5, #524	; 0x20c
 8003418:	68db      	ldr	r3, [r3, #12]
 800341a:	4798      	blx	r3
 800341c:	2000      	movs	r0, #0
 800341e:	bd38      	pop	{r3, r4, r5, pc}
 8003420:	2003      	movs	r0, #3
 8003422:	e7fc      	b.n	800341e <USBD_CDC_DataOut+0x32>

08003424 <USBD_CDC_DataIn>:
 8003424:	b5f8      	push	{r3, r4, r5, r6, r7, lr}
 8003426:	f8d0 62d4 	ldr.w	r6, [r0, #724]	; 0x2d4
 800342a:	f8d0 72c8 	ldr.w	r7, [r0, #712]	; 0x2c8
 800342e:	eb00 0686 	add.w	r6, r0, r6, lsl #2
 8003432:	460a      	mov	r2, r1
 8003434:	f8d6 52c0 	ldr.w	r5, [r6, #704]	; 0x2c0
 8003438:	b335      	cbz	r5, 8003488 <USBD_CDC_DataIn+0x64>
 800343a:	2414      	movs	r4, #20
 800343c:	f001 0c0f 	and.w	ip, r1, #15
 8003440:	fb04 030c 	mla	r3, r4, ip, r0
 8003444:	699c      	ldr	r4, [r3, #24]
 8003446:	b184      	cbz	r4, 800346a <USBD_CDC_DataIn+0x46>
 8003448:	f04f 0e24 	mov.w	lr, #36	; 0x24
 800344c:	fb0e 770c 	mla	r7, lr, ip, r7
 8003450:	6cbf      	ldr	r7, [r7, #72]	; 0x48
 8003452:	fbb4 fcf7 	udiv	ip, r4, r7
 8003456:	fb07 441c 	mls	r4, r7, ip, r4
 800345a:	b934      	cbnz	r4, 800346a <USBD_CDC_DataIn+0x46>
 800345c:	619c      	str	r4, [r3, #24]
 800345e:	4622      	mov	r2, r4
 8003460:	4623      	mov	r3, r4
 8003462:	f000 ffe8 	bl	8004436 <USBD_LL_Transmit>
 8003466:	4620      	mov	r0, r4
 8003468:	e00d      	b.n	8003486 <USBD_CDC_DataIn+0x62>
 800346a:	f8d6 32c4 	ldr.w	r3, [r6, #708]	; 0x2c4
 800346e:	691c      	ldr	r4, [r3, #16]
 8003470:	2700      	movs	r7, #0
 8003472:	f8c5 7214 	str.w	r7, [r5, #532]	; 0x214
 8003476:	2c00      	cmp	r4, #0
 8003478:	d0f5      	beq.n	8003466 <USBD_CDC_DataIn+0x42>
 800347a:	f8d5 0208 	ldr.w	r0, [r5, #520]	; 0x208
 800347e:	f505 7104 	add.w	r1, r5, #528	; 0x210
 8003482:	47a0      	blx	r4
 8003484:	4638      	mov	r0, r7
 8003486:	bdf8      	pop	{r3, r4, r5, r6, r7, pc}
 8003488:	2003      	movs	r0, #3
 800348a:	e7fc      	b.n	8003486 <USBD_CDC_DataIn+0x62>

0800348c <USBD_CDC_Setup>:
 800348c:	f8d0 32d4 	ldr.w	r3, [r0, #724]	; 0x2d4
 8003490:	e92d 41f3 	stmdb	sp!, {r0, r1, r4, r5, r6, r7, r8, lr}
 8003494:	eb00 0383 	add.w	r3, r0, r3, lsl #2
 8003498:	f04f 0800 	mov.w	r8, #0
 800349c:	f8d3 72c0 	ldr.w	r7, [r3, #704]	; 0x2c0
 80034a0:	f88d 8005 	strb.w	r8, [sp, #5]
 80034a4:	4605      	mov	r5, r0
 80034a6:	460e      	mov	r6, r1
 80034a8:	f8ad 8006 	strh.w	r8, [sp, #6]
 80034ac:	2f00      	cmp	r7, #0
 80034ae:	d06e      	beq.n	800358e <USBD_CDC_Setup+0x102>
 80034b0:	780a      	ldrb	r2, [r1, #0]
 80034b2:	f012 0460 	ands.w	r4, r2, #96	; 0x60
 80034b6:	d02e      	beq.n	8003516 <USBD_CDC_Setup+0x8a>
 80034b8:	2c20      	cmp	r4, #32
 80034ba:	d164      	bne.n	8003586 <USBD_CDC_Setup+0xfa>
 80034bc:	88cc      	ldrh	r4, [r1, #6]
 80034be:	f891 c001 	ldrb.w	ip, [r1, #1]
 80034c2:	b30c      	cbz	r4, 8003508 <USBD_CDC_Setup+0x7c>
 80034c4:	0612      	lsls	r2, r2, #24
 80034c6:	d513      	bpl.n	80034f0 <USBD_CDC_Setup+0x64>
 80034c8:	f8d3 32c4 	ldr.w	r3, [r3, #708]	; 0x2c4
 80034cc:	4622      	mov	r2, r4
 80034ce:	4639      	mov	r1, r7
 80034d0:	689b      	ldr	r3, [r3, #8]
 80034d2:	4660      	mov	r0, ip
 80034d4:	4798      	blx	r3
 80034d6:	88f2      	ldrh	r2, [r6, #6]
 80034d8:	2a07      	cmp	r2, #7
 80034da:	bf28      	it	cs
 80034dc:	2207      	movcs	r2, #7
 80034de:	4639      	mov	r1, r7
 80034e0:	4628      	mov	r0, r5
 80034e2:	f000 fd2e 	bl	8003f42 <USBD_CtlSendData>
 80034e6:	4644      	mov	r4, r8
 80034e8:	4620      	mov	r0, r4
 80034ea:	b002      	add	sp, #8
 80034ec:	e8bd 81f0 	ldmia.w	sp!, {r4, r5, r6, r7, r8, pc}
 80034f0:	2c40      	cmp	r4, #64	; 0x40
 80034f2:	bf28      	it	cs
 80034f4:	2440      	movcs	r4, #64	; 0x40
 80034f6:	f887 c200 	strb.w	ip, [r7, #512]	; 0x200
 80034fa:	f887 4201 	strb.w	r4, [r7, #513]	; 0x201
 80034fe:	4622      	mov	r2, r4
 8003500:	4639      	mov	r1, r7
 8003502:	f000 fd33 	bl	8003f6c <USBD_CtlPrepareRx>
 8003506:	e7ee      	b.n	80034e6 <USBD_CDC_Setup+0x5a>
 8003508:	f8d3 32c4 	ldr.w	r3, [r3, #708]	; 0x2c4
 800350c:	4622      	mov	r2, r4
 800350e:	689b      	ldr	r3, [r3, #8]
 8003510:	4660      	mov	r0, ip
 8003512:	4798      	blx	r3
 8003514:	e7e8      	b.n	80034e8 <USBD_CDC_Setup+0x5c>
 8003516:	784f      	ldrb	r7, [r1, #1]
 8003518:	2f0b      	cmp	r7, #11
 800351a:	d834      	bhi.n	8003586 <USBD_CDC_Setup+0xfa>
 800351c:	a301      	add	r3, pc, #4	; (adr r3, 8003524 <USBD_CDC_Setup+0x98>)
 800351e:	f853 f027 	ldr.w	pc, [r3, r7, lsl #2]
 8003522:	bf00      	nop
 8003524:	08003555 	.word	0x08003555
 8003528:	080034e9 	.word	0x080034e9
 800352c:	08003587 	.word	0x08003587
 8003530:	08003587 	.word	0x08003587
 8003534:	08003587 	.word	0x08003587
 8003538:	08003587 	.word	0x08003587
 800353c:	08003587 	.word	0x08003587
 8003540:	08003587 	.word	0x08003587
 8003544:	08003587 	.word	0x08003587
 8003548:	08003587 	.word	0x08003587
 800354c:	0800356b 	.word	0x0800356b
 8003550:	0800357f 	.word	0x0800357f
 8003554:	f890 329c 	ldrb.w	r3, [r0, #668]	; 0x29c
 8003558:	2b03      	cmp	r3, #3
 800355a:	d114      	bne.n	8003586 <USBD_CDC_Setup+0xfa>
 800355c:	2202      	movs	r2, #2
 800355e:	f10d 0106 	add.w	r1, sp, #6
 8003562:	f000 fcee 	bl	8003f42 <USBD_CtlSendData>
 8003566:	463c      	mov	r4, r7
 8003568:	e7be      	b.n	80034e8 <USBD_CDC_Setup+0x5c>
 800356a:	f890 329c 	ldrb.w	r3, [r0, #668]	; 0x29c
 800356e:	2b03      	cmp	r3, #3
 8003570:	d109      	bne.n	8003586 <USBD_CDC_Setup+0xfa>
 8003572:	2201      	movs	r2, #1
 8003574:	f10d 0105 	add.w	r1, sp, #5
 8003578:	f000 fce3 	bl	8003f42 <USBD_CtlSendData>
 800357c:	e7b4      	b.n	80034e8 <USBD_CDC_Setup+0x5c>
 800357e:	f890 329c 	ldrb.w	r3, [r0, #668]	; 0x29c
 8003582:	2b03      	cmp	r3, #3
 8003584:	d0b0      	beq.n	80034e8 <USBD_CDC_Setup+0x5c>
 8003586:	4631      	mov	r1, r6
 8003588:	4628      	mov	r0, r5
 800358a:	f000 fcb3 	bl	8003ef4 <USBD_CtlError>
 800358e:	2403      	movs	r4, #3
 8003590:	e7aa      	b.n	80034e8 <USBD_CDC_Setup+0x5c>
 8003592:	bf00      	nop

08003594 <USBD_CDC_DeInit>:
 8003594:	b538      	push	{r3, r4, r5, lr}
 8003596:	4604      	mov	r4, r0
 8003598:	2500      	movs	r5, #0
 800359a:	2181      	movs	r1, #129	; 0x81
 800359c:	f000 ff27 	bl	80043ee <USBD_LL_CloseEP>
 80035a0:	2101      	movs	r1, #1
 80035a2:	8725      	strh	r5, [r4, #56]	; 0x38
 80035a4:	4620      	mov	r0, r4
 80035a6:	f000 ff22 	bl	80043ee <USBD_LL_CloseEP>
 80035aa:	f8a4 5178 	strh.w	r5, [r4, #376]	; 0x178
 80035ae:	2182      	movs	r1, #130	; 0x82
 80035b0:	4620      	mov	r0, r4
 80035b2:	f000 ff1c 	bl	80043ee <USBD_LL_CloseEP>
 80035b6:	f8d4 32d4 	ldr.w	r3, [r4, #724]	; 0x2d4
 80035ba:	64e5      	str	r5, [r4, #76]	; 0x4c
 80035bc:	eb04 0383 	add.w	r3, r4, r3, lsl #2
 80035c0:	f8d3 22c0 	ldr.w	r2, [r3, #704]	; 0x2c0
 80035c4:	b18a      	cbz	r2, 80035ea <USBD_CDC_DeInit+0x56>
 80035c6:	f8d3 32c4 	ldr.w	r3, [r3, #708]	; 0x2c4
 80035ca:	685b      	ldr	r3, [r3, #4]
 80035cc:	4798      	blx	r3
 80035ce:	f8d4 32d4 	ldr.w	r3, [r4, #724]	; 0x2d4
 80035d2:	33b0      	adds	r3, #176	; 0xb0
 80035d4:	f854 0023 	ldr.w	r0, [r4, r3, lsl #2]
 80035d8:	f000 feea 	bl	80043b0 <USBD_static_free>
 80035dc:	f8d4 32d4 	ldr.w	r3, [r4, #724]	; 0x2d4
 80035e0:	33b0      	adds	r3, #176	; 0xb0
 80035e2:	f844 5023 	str.w	r5, [r4, r3, lsl #2]
 80035e6:	f8c4 52bc 	str.w	r5, [r4, #700]	; 0x2bc
 80035ea:	2000      	movs	r0, #0
 80035ec:	bd38      	pop	{r3, r4, r5, pc}

080035ee <USBD_CDC_Init>:
 80035ee:	b5f8      	push	{r3, r4, r5, r6, r7, lr}
 80035f0:	4604      	mov	r4, r0
 80035f2:	f44f 7007 	mov.w	r0, #540	; 0x21c
 80035f6:	f000 fed7 	bl	80043a8 <USBD_static_malloc>
 80035fa:	4605      	mov	r5, r0
 80035fc:	b930      	cbnz	r0, 800360c <USBD_CDC_Init+0x1e>
 80035fe:	f8d4 32d4 	ldr.w	r3, [r4, #724]	; 0x2d4
 8003602:	33b0      	adds	r3, #176	; 0xb0
 8003604:	f844 0023 	str.w	r0, [r4, r3, lsl #2]
 8003608:	2502      	movs	r5, #2
 800360a:	e045      	b.n	8003698 <USBD_CDC_Init+0xaa>
 800360c:	f44f 7207 	mov.w	r2, #540	; 0x21c
 8003610:	2100      	movs	r1, #0
 8003612:	f000 ffd7 	bl	80045c4 <memset>
 8003616:	f8d4 32d4 	ldr.w	r3, [r4, #724]	; 0x2d4
 800361a:	33b0      	adds	r3, #176	; 0xb0
 800361c:	f844 5023 	str.w	r5, [r4, r3, lsl #2]
 8003620:	7c23      	ldrb	r3, [r4, #16]
 8003622:	f8c4 52bc 	str.w	r5, [r4, #700]	; 0x2bc
 8003626:	bbcb      	cbnz	r3, 800369c <USBD_CDC_Init+0xae>
 8003628:	f44f 7300 	mov.w	r3, #512	; 0x200
 800362c:	2181      	movs	r1, #129	; 0x81
 800362e:	2202      	movs	r2, #2
 8003630:	4620      	mov	r0, r4
 8003632:	f000 fed0 	bl	80043d6 <USBD_LL_OpenEP>
 8003636:	2101      	movs	r1, #1
 8003638:	8721      	strh	r1, [r4, #56]	; 0x38
 800363a:	f44f 7300 	mov.w	r3, #512	; 0x200
 800363e:	2202      	movs	r2, #2
 8003640:	4620      	mov	r0, r4
 8003642:	f000 fec8 	bl	80043d6 <USBD_LL_OpenEP>
 8003646:	2701      	movs	r7, #1
 8003648:	2310      	movs	r3, #16
 800364a:	2203      	movs	r2, #3
 800364c:	f8a4 304e 	strh.w	r3, [r4, #78]	; 0x4e
 8003650:	2182      	movs	r1, #130	; 0x82
 8003652:	2308      	movs	r3, #8
 8003654:	f8a4 7178 	strh.w	r7, [r4, #376]	; 0x178
 8003658:	4620      	mov	r0, r4
 800365a:	f000 febc 	bl	80043d6 <USBD_LL_OpenEP>
 800365e:	f8d4 32d4 	ldr.w	r3, [r4, #724]	; 0x2d4
 8003662:	f8a4 704c 	strh.w	r7, [r4, #76]	; 0x4c
 8003666:	eb04 0383 	add.w	r3, r4, r3, lsl #2
 800366a:	2600      	movs	r6, #0
 800366c:	f8d3 32c4 	ldr.w	r3, [r3, #708]	; 0x2c4
 8003670:	f8c5 6204 	str.w	r6, [r5, #516]	; 0x204
 8003674:	681b      	ldr	r3, [r3, #0]
 8003676:	4798      	blx	r3
 8003678:	f8d5 2204 	ldr.w	r2, [r5, #516]	; 0x204
 800367c:	f8c5 6214 	str.w	r6, [r5, #532]	; 0x214
 8003680:	f8c5 6218 	str.w	r6, [r5, #536]	; 0x218
 8003684:	2a00      	cmp	r2, #0
 8003686:	d0bf      	beq.n	8003608 <USBD_CDC_Init+0x1a>
 8003688:	7c25      	ldrb	r5, [r4, #16]
 800368a:	b98d      	cbnz	r5, 80036b0 <USBD_CDC_Init+0xc2>
 800368c:	f44f 7300 	mov.w	r3, #512	; 0x200
 8003690:	4639      	mov	r1, r7
 8003692:	4620      	mov	r0, r4
 8003694:	f000 fed8 	bl	8004448 <USBD_LL_PrepareReceive>
 8003698:	4628      	mov	r0, r5
 800369a:	bdf8      	pop	{r3, r4, r5, r6, r7, pc}
 800369c:	2340      	movs	r3, #64	; 0x40
 800369e:	2181      	movs	r1, #129	; 0x81
 80036a0:	2202      	movs	r2, #2
 80036a2:	4620      	mov	r0, r4
 80036a4:	f000 fe97 	bl	80043d6 <USBD_LL_OpenEP>
 80036a8:	2101      	movs	r1, #1
 80036aa:	8721      	strh	r1, [r4, #56]	; 0x38
 80036ac:	2340      	movs	r3, #64	; 0x40
 80036ae:	e7c6      	b.n	800363e <USBD_CDC_Init+0x50>
 80036b0:	2340      	movs	r3, #64	; 0x40
 80036b2:	4639      	mov	r1, r7
 80036b4:	4620      	mov	r0, r4
 80036b6:	f000 fec7 	bl	8004448 <USBD_LL_PrepareReceive>
 80036ba:	4635      	mov	r5, r6
 80036bc:	e7ec      	b.n	8003698 <USBD_CDC_Init+0xaa>

080036be <USBD_CDC_RegisterInterface>:
 80036be:	b139      	cbz	r1, 80036d0 <USBD_CDC_RegisterInterface+0x12>
 80036c0:	f8d0 32d4 	ldr.w	r3, [r0, #724]	; 0x2d4
 80036c4:	eb00 0083 	add.w	r0, r0, r3, lsl #2
 80036c8:	f8c0 12c4 	str.w	r1, [r0, #708]	; 0x2c4
 80036cc:	2000      	movs	r0, #0
 80036ce:	4770      	bx	lr
 80036d0:	2003      	movs	r0, #3
 80036d2:	4770      	bx	lr

080036d4 <USBD_CDC_SetTxBuffer>:
 80036d4:	f8d0 32d4 	ldr.w	r3, [r0, #724]	; 0x2d4
 80036d8:	33b0      	adds	r3, #176	; 0xb0
 80036da:	f850 3023 	ldr.w	r3, [r0, r3, lsl #2]
 80036de:	b12b      	cbz	r3, 80036ec <USBD_CDC_SetTxBuffer+0x18>
 80036e0:	f8c3 1208 	str.w	r1, [r3, #520]	; 0x208
 80036e4:	f8c3 2210 	str.w	r2, [r3, #528]	; 0x210
 80036e8:	2000      	movs	r0, #0
 80036ea:	4770      	bx	lr
 80036ec:	2003      	movs	r0, #3
 80036ee:	4770      	bx	lr

080036f0 <USBD_CDC_SetRxBuffer>:
 80036f0:	f8d0 32d4 	ldr.w	r3, [r0, #724]	; 0x2d4
 80036f4:	33b0      	adds	r3, #176	; 0xb0
 80036f6:	f850 3023 	ldr.w	r3, [r0, r3, lsl #2]
 80036fa:	b11b      	cbz	r3, 8003704 <USBD_CDC_SetRxBuffer+0x14>
 80036fc:	f8c3 1204 	str.w	r1, [r3, #516]	; 0x204
 8003700:	2000      	movs	r0, #0
 8003702:	4770      	bx	lr
 8003704:	2003      	movs	r0, #3
 8003706:	4770      	bx	lr

08003708 <USBD_CDC_ReceivePacket>:
 8003708:	f8d0 22d4 	ldr.w	r2, [r0, #724]	; 0x2d4
 800370c:	32b0      	adds	r2, #176	; 0xb0
 800370e:	b510      	push	{r4, lr}
 8003710:	f850 2022 	ldr.w	r2, [r0, r2, lsl #2]
 8003714:	b182      	cbz	r2, 8003738 <USBD_CDC_ReceivePacket+0x30>
 8003716:	7c04      	ldrb	r4, [r0, #16]
 8003718:	f8d2 2204 	ldr.w	r2, [r2, #516]	; 0x204
 800371c:	b934      	cbnz	r4, 800372c <USBD_CDC_ReceivePacket+0x24>
 800371e:	f44f 7300 	mov.w	r3, #512	; 0x200
 8003722:	2101      	movs	r1, #1
 8003724:	f000 fe90 	bl	8004448 <USBD_LL_PrepareReceive>
 8003728:	4620      	mov	r0, r4
 800372a:	bd10      	pop	{r4, pc}
 800372c:	2340      	movs	r3, #64	; 0x40
 800372e:	2101      	movs	r1, #1
 8003730:	f000 fe8a 	bl	8004448 <USBD_LL_PrepareReceive>
 8003734:	2400      	movs	r4, #0
 8003736:	e7f7      	b.n	8003728 <USBD_CDC_ReceivePacket+0x20>
 8003738:	2403      	movs	r4, #3
 800373a:	e7f5      	b.n	8003728 <USBD_CDC_ReceivePacket+0x20>

0800373c <USBD_Init>:
 800373c:	b178      	cbz	r0, 800375e <USBD_Init+0x22>
 800373e:	2300      	movs	r3, #0
 8003740:	f8c0 32b8 	str.w	r3, [r0, #696]	; 0x2b8
 8003744:	f8c0 32c4 	str.w	r3, [r0, #708]	; 0x2c4
 8003748:	f8c0 32d0 	str.w	r3, [r0, #720]	; 0x2d0
 800374c:	b109      	cbz	r1, 8003752 <USBD_Init+0x16>
 800374e:	f8c0 12b4 	str.w	r1, [r0, #692]	; 0x2b4
 8003752:	2301      	movs	r3, #1
 8003754:	f880 329c 	strb.w	r3, [r0, #668]	; 0x29c
 8003758:	7002      	strb	r2, [r0, #0]
 800375a:	f000 bdab 	b.w	80042b4 <USBD_LL_Init>
 800375e:	2003      	movs	r0, #3
 8003760:	4770      	bx	lr

08003762 <USBD_RegisterClass>:
 8003762:	b513      	push	{r0, r1, r4, lr}
 8003764:	2300      	movs	r3, #0
 8003766:	4604      	mov	r4, r0
 8003768:	f8ad 3006 	strh.w	r3, [sp, #6]
 800376c:	b181      	cbz	r1, 8003790 <USBD_RegisterClass+0x2e>
 800376e:	6acb      	ldr	r3, [r1, #44]	; 0x2c
 8003770:	f8c0 12b8 	str.w	r1, [r0, #696]	; 0x2b8
 8003774:	b123      	cbz	r3, 8003780 <USBD_RegisterClass+0x1e>
 8003776:	f10d 0006 	add.w	r0, sp, #6
 800377a:	4798      	blx	r3
 800377c:	f8c4 02d0 	str.w	r0, [r4, #720]	; 0x2d0
 8003780:	f8d4 32d8 	ldr.w	r3, [r4, #728]	; 0x2d8
 8003784:	3301      	adds	r3, #1
 8003786:	f8c4 32d8 	str.w	r3, [r4, #728]	; 0x2d8
 800378a:	2000      	movs	r0, #0
 800378c:	b002      	add	sp, #8
 800378e:	bd10      	pop	{r4, pc}
 8003790:	2003      	movs	r0, #3
 8003792:	e7fb      	b.n	800378c <USBD_RegisterClass+0x2a>

08003794 <USBD_Start>:
 8003794:	f000 be16 	b.w	80043c4 <USBD_LL_Start>

08003798 <USBD_SetClassConfig>:
 8003798:	f8d0 32b8 	ldr.w	r3, [r0, #696]	; 0x2b8
 800379c:	b10b      	cbz	r3, 80037a2 <USBD_SetClassConfig+0xa>
 800379e:	681b      	ldr	r3, [r3, #0]
 80037a0:	4718      	bx	r3
 80037a2:	4618      	mov	r0, r3
 80037a4:	4770      	bx	lr

080037a6 <USBD_ClrClassConfig>:
 80037a6:	b508      	push	{r3, lr}
 80037a8:	f8d0 32b8 	ldr.w	r3, [r0, #696]	; 0x2b8
 80037ac:	685b      	ldr	r3, [r3, #4]
 80037ae:	4798      	blx	r3
 80037b0:	2800      	cmp	r0, #0
 80037b2:	bf18      	it	ne
 80037b4:	2003      	movne	r0, #3
 80037b6:	bd08      	pop	{r3, pc}

080037b8 <USBD_LL_SetupStage>:
 80037b8:	b538      	push	{r3, r4, r5, lr}
 80037ba:	4604      	mov	r4, r0
 80037bc:	f200 25aa 	addw	r5, r0, #682	; 0x2aa
 80037c0:	4628      	mov	r0, r5
 80037c2:	f000 fb8c 	bl	8003ede <USBD_ParseSetupRequest>
 80037c6:	2301      	movs	r3, #1
 80037c8:	f894 12aa 	ldrb.w	r1, [r4, #682]	; 0x2aa
 80037cc:	f8c4 3294 	str.w	r3, [r4, #660]	; 0x294
 80037d0:	f8b4 32b0 	ldrh.w	r3, [r4, #688]	; 0x2b0
 80037d4:	f8c4 3298 	str.w	r3, [r4, #664]	; 0x298
 80037d8:	f001 031f 	and.w	r3, r1, #31
 80037dc:	2b01      	cmp	r3, #1
 80037de:	d008      	beq.n	80037f2 <USBD_LL_SetupStage+0x3a>
 80037e0:	2b02      	cmp	r3, #2
 80037e2:	d00c      	beq.n	80037fe <USBD_LL_SetupStage+0x46>
 80037e4:	b98b      	cbnz	r3, 800380a <USBD_LL_SetupStage+0x52>
 80037e6:	4629      	mov	r1, r5
 80037e8:	4620      	mov	r0, r4
 80037ea:	e8bd 4038 	ldmia.w	sp!, {r3, r4, r5, lr}
 80037ee:	f000 b94f 	b.w	8003a90 <USBD_StdDevReq>
 80037f2:	4629      	mov	r1, r5
 80037f4:	4620      	mov	r0, r4
 80037f6:	e8bd 4038 	ldmia.w	sp!, {r3, r4, r5, lr}
 80037fa:	f000 baa5 	b.w	8003d48 <USBD_StdItfReq>
 80037fe:	4629      	mov	r1, r5
 8003800:	4620      	mov	r0, r4
 8003802:	e8bd 4038 	ldmia.w	sp!, {r3, r4, r5, lr}
 8003806:	f000 bace 	b.w	8003da6 <USBD_StdEPReq>
 800380a:	4620      	mov	r0, r4
 800380c:	f001 0180 	and.w	r1, r1, #128	; 0x80
 8003810:	e8bd 4038 	ldmia.w	sp!, {r3, r4, r5, lr}
 8003814:	f000 bdf4 	b.w	8004400 <USBD_LL_StallEP>

08003818 <USBD_LL_DataOutStage>:
 8003818:	b570      	push	{r4, r5, r6, lr}
 800381a:	4604      	mov	r4, r0
 800381c:	4616      	mov	r6, r2
 800381e:	bb09      	cbnz	r1, 8003864 <USBD_LL_DataOutStage+0x4c>
 8003820:	f8d0 3294 	ldr.w	r3, [r0, #660]	; 0x294
 8003824:	2b03      	cmp	r3, #3
 8003826:	d10c      	bne.n	8003842 <USBD_LL_DataOutStage+0x2a>
 8003828:	e9d0 3257 	ldrd	r3, r2, [r0, #348]	; 0x15c
 800382c:	4293      	cmp	r3, r2
 800382e:	d90a      	bls.n	8003846 <USBD_LL_DataOutStage+0x2e>
 8003830:	1a9b      	subs	r3, r3, r2
 8003832:	429a      	cmp	r2, r3
 8003834:	f8c0 315c 	str.w	r3, [r0, #348]	; 0x15c
 8003838:	bf28      	it	cs
 800383a:	461a      	movcs	r2, r3
 800383c:	4631      	mov	r1, r6
 800383e:	f000 fba2 	bl	8003f86 <USBD_CtlContinueRx>
 8003842:	2000      	movs	r0, #0
 8003844:	bd70      	pop	{r4, r5, r6, pc}
 8003846:	f890 329c 	ldrb.w	r3, [r0, #668]	; 0x29c
 800384a:	2b03      	cmp	r3, #3
 800384c:	d106      	bne.n	800385c <USBD_LL_DataOutStage+0x44>
 800384e:	f8d0 32b8 	ldr.w	r3, [r0, #696]	; 0x2b8
 8003852:	691b      	ldr	r3, [r3, #16]
 8003854:	b113      	cbz	r3, 800385c <USBD_LL_DataOutStage+0x44>
 8003856:	f8c0 12d4 	str.w	r1, [r0, #724]	; 0x2d4
 800385a:	4798      	blx	r3
 800385c:	4620      	mov	r0, r4
 800385e:	f000 fb9a 	bl	8003f96 <USBD_CtlSendStatus>
 8003862:	e7ee      	b.n	8003842 <USBD_LL_DataOutStage+0x2a>
 8003864:	f890 329c 	ldrb.w	r3, [r0, #668]	; 0x29c
 8003868:	2b03      	cmp	r3, #3
 800386a:	d1ea      	bne.n	8003842 <USBD_LL_DataOutStage+0x2a>
 800386c:	f8d0 32b8 	ldr.w	r3, [r0, #696]	; 0x2b8
 8003870:	699b      	ldr	r3, [r3, #24]
 8003872:	2b00      	cmp	r3, #0
 8003874:	d0e5      	beq.n	8003842 <USBD_LL_DataOutStage+0x2a>
 8003876:	2200      	movs	r2, #0
 8003878:	e8bd 4070 	ldmia.w	sp!, {r4, r5, r6, lr}
 800387c:	f8c0 22d4 	str.w	r2, [r0, #724]	; 0x2d4
 8003880:	4718      	bx	r3

08003882 <USBD_LL_DataInStage>:
 8003882:	b573      	push	{r0, r1, r4, r5, r6, lr}
 8003884:	4604      	mov	r4, r0
 8003886:	4616      	mov	r6, r2
 8003888:	2900      	cmp	r1, #0
 800388a:	d141      	bne.n	8003910 <USBD_LL_DataInStage+0x8e>
 800388c:	f8d0 2294 	ldr.w	r2, [r0, #660]	; 0x294
 8003890:	2a02      	cmp	r2, #2
 8003892:	d10f      	bne.n	80038b4 <USBD_LL_DataInStage+0x32>
 8003894:	e9d0 5207 	ldrd	r5, r2, [r0, #28]
 8003898:	4295      	cmp	r5, r2
 800389a:	d914      	bls.n	80038c6 <USBD_LL_DataInStage+0x44>
 800389c:	1aaa      	subs	r2, r5, r2
 800389e:	9101      	str	r1, [sp, #4]
 80038a0:	61c2      	str	r2, [r0, #28]
 80038a2:	4631      	mov	r1, r6
 80038a4:	f000 fb5a 	bl	8003f5c <USBD_CtlContinueSendData>
 80038a8:	9b01      	ldr	r3, [sp, #4]
 80038aa:	461a      	mov	r2, r3
 80038ac:	4619      	mov	r1, r3
 80038ae:	4620      	mov	r0, r4
 80038b0:	f000 fdca 	bl	8004448 <USBD_LL_PrepareReceive>
 80038b4:	f894 32a0 	ldrb.w	r3, [r4, #672]	; 0x2a0
 80038b8:	b113      	cbz	r3, 80038c0 <USBD_LL_DataInStage+0x3e>
 80038ba:	2300      	movs	r3, #0
 80038bc:	f884 32a0 	strb.w	r3, [r4, #672]	; 0x2a0
 80038c0:	2000      	movs	r0, #0
 80038c2:	b002      	add	sp, #8
 80038c4:	bd70      	pop	{r4, r5, r6, pc}
 80038c6:	d10e      	bne.n	80038e6 <USBD_LL_DataInStage+0x64>
 80038c8:	6982      	ldr	r2, [r0, #24]
 80038ca:	4295      	cmp	r5, r2
 80038cc:	d80b      	bhi.n	80038e6 <USBD_LL_DataInStage+0x64>
 80038ce:	f8d0 5298 	ldr.w	r5, [r0, #664]	; 0x298
 80038d2:	42aa      	cmp	r2, r5
 80038d4:	d207      	bcs.n	80038e6 <USBD_LL_DataInStage+0x64>
 80038d6:	460a      	mov	r2, r1
 80038d8:	9101      	str	r1, [sp, #4]
 80038da:	f000 fb3f 	bl	8003f5c <USBD_CtlContinueSendData>
 80038de:	9b01      	ldr	r3, [sp, #4]
 80038e0:	f8c4 3298 	str.w	r3, [r4, #664]	; 0x298
 80038e4:	e7e1      	b.n	80038aa <USBD_LL_DataInStage+0x28>
 80038e6:	f894 329c 	ldrb.w	r3, [r4, #668]	; 0x29c
 80038ea:	2b03      	cmp	r3, #3
 80038ec:	d108      	bne.n	8003900 <USBD_LL_DataInStage+0x7e>
 80038ee:	f8d4 32b8 	ldr.w	r3, [r4, #696]	; 0x2b8
 80038f2:	68db      	ldr	r3, [r3, #12]
 80038f4:	b123      	cbz	r3, 8003900 <USBD_LL_DataInStage+0x7e>
 80038f6:	2200      	movs	r2, #0
 80038f8:	f8c4 22d4 	str.w	r2, [r4, #724]	; 0x2d4
 80038fc:	4620      	mov	r0, r4
 80038fe:	4798      	blx	r3
 8003900:	2180      	movs	r1, #128	; 0x80
 8003902:	4620      	mov	r0, r4
 8003904:	f000 fd7c 	bl	8004400 <USBD_LL_StallEP>
 8003908:	4620      	mov	r0, r4
 800390a:	f000 fb4f 	bl	8003fac <USBD_CtlReceiveStatus>
 800390e:	e7d1      	b.n	80038b4 <USBD_LL_DataInStage+0x32>
 8003910:	f890 329c 	ldrb.w	r3, [r0, #668]	; 0x29c
 8003914:	2b03      	cmp	r3, #3
 8003916:	d1d3      	bne.n	80038c0 <USBD_LL_DataInStage+0x3e>
 8003918:	f8d0 32b8 	ldr.w	r3, [r0, #696]	; 0x2b8
 800391c:	695b      	ldr	r3, [r3, #20]
 800391e:	2b00      	cmp	r3, #0
 8003920:	d0ce      	beq.n	80038c0 <USBD_LL_DataInStage+0x3e>
 8003922:	2200      	movs	r2, #0
 8003924:	f8c0 22d4 	str.w	r2, [r0, #724]	; 0x2d4
 8003928:	b002      	add	sp, #8
 800392a:	e8bd 4070 	ldmia.w	sp!, {r4, r5, r6, lr}
 800392e:	4718      	bx	r3

08003930 <USBD_LL_Reset>:
 8003930:	b5f8      	push	{r3, r4, r5, r6, r7, lr}
 8003932:	2301      	movs	r3, #1
 8003934:	f880 329c 	strb.w	r3, [r0, #668]	; 0x29c
 8003938:	f8d0 32b8 	ldr.w	r3, [r0, #696]	; 0x2b8
 800393c:	2100      	movs	r1, #0
 800393e:	4604      	mov	r4, r0
 8003940:	f8c0 1294 	str.w	r1, [r0, #660]	; 0x294
 8003944:	6041      	str	r1, [r0, #4]
 8003946:	f8c0 12a4 	str.w	r1, [r0, #676]	; 0x2a4
 800394a:	f880 12a0 	strb.w	r1, [r0, #672]	; 0x2a0
 800394e:	b9b3      	cbnz	r3, 800397e <USBD_LL_Reset+0x4e>
 8003950:	2600      	movs	r6, #0
 8003952:	2200      	movs	r2, #0
 8003954:	2540      	movs	r5, #64	; 0x40
 8003956:	4611      	mov	r1, r2
 8003958:	2701      	movs	r7, #1
 800395a:	2340      	movs	r3, #64	; 0x40
 800395c:	4620      	mov	r0, r4
 800395e:	f000 fd3a 	bl	80043d6 <USBD_LL_OpenEP>
 8003962:	f8a4 7164 	strh.w	r7, [r4, #356]	; 0x164
 8003966:	f8c4 5160 	str.w	r5, [r4, #352]	; 0x160
 800396a:	462b      	mov	r3, r5
 800396c:	2200      	movs	r2, #0
 800396e:	2180      	movs	r1, #128	; 0x80
 8003970:	4620      	mov	r0, r4
 8003972:	f000 fd30 	bl	80043d6 <USBD_LL_OpenEP>
 8003976:	84a7      	strh	r7, [r4, #36]	; 0x24
 8003978:	6225      	str	r5, [r4, #32]
 800397a:	4630      	mov	r0, r6
 800397c:	bdf8      	pop	{r3, r4, r5, r6, r7, pc}
 800397e:	685b      	ldr	r3, [r3, #4]
 8003980:	2b00      	cmp	r3, #0
 8003982:	d0e5      	beq.n	8003950 <USBD_LL_Reset+0x20>
 8003984:	4798      	blx	r3
 8003986:	2800      	cmp	r0, #0
 8003988:	d0e2      	beq.n	8003950 <USBD_LL_Reset+0x20>
 800398a:	2603      	movs	r6, #3
 800398c:	e7e1      	b.n	8003952 <USBD_LL_Reset+0x22>

0800398e <USBD_LL_SetSpeed>:
 800398e:	7401      	strb	r1, [r0, #16]
 8003990:	2000      	movs	r0, #0
 8003992:	4770      	bx	lr

08003994 <USBD_LL_Suspend>:
 8003994:	f890 329c 	ldrb.w	r3, [r0, #668]	; 0x29c
 8003998:	b2db      	uxtb	r3, r3
 800399a:	f880 329d 	strb.w	r3, [r0, #669]	; 0x29d
 800399e:	2304      	movs	r3, #4
 80039a0:	f880 329c 	strb.w	r3, [r0, #668]	; 0x29c
 80039a4:	2000      	movs	r0, #0
 80039a6:	4770      	bx	lr

080039a8 <USBD_LL_Resume>:
 80039a8:	f890 329c 	ldrb.w	r3, [r0, #668]	; 0x29c
 80039ac:	2b04      	cmp	r3, #4
 80039ae:	bf02      	ittt	eq
 80039b0:	f890 329d 	ldrbeq.w	r3, [r0, #669]	; 0x29d
 80039b4:	b2db      	uxtbeq	r3, r3
 80039b6:	f880 329c 	strbeq.w	r3, [r0, #668]	; 0x29c
 80039ba:	2000      	movs	r0, #0
 80039bc:	4770      	bx	lr

080039be <USBD_LL_SOF>:
 80039be:	b508      	push	{r3, lr}
 80039c0:	f890 229c 	ldrb.w	r2, [r0, #668]	; 0x29c
 80039c4:	2a03      	cmp	r2, #3
 80039c6:	d105      	bne.n	80039d4 <USBD_LL_SOF+0x16>
 80039c8:	f8d0 32b8 	ldr.w	r3, [r0, #696]	; 0x2b8
 80039cc:	b113      	cbz	r3, 80039d4 <USBD_LL_SOF+0x16>
 80039ce:	69db      	ldr	r3, [r3, #28]
 80039d0:	b103      	cbz	r3, 80039d4 <USBD_LL_SOF+0x16>
 80039d2:	4798      	blx	r3
 80039d4:	2000      	movs	r0, #0
 80039d6:	bd08      	pop	{r3, pc}

080039d8 <USBD_LL_IsoINIncomplete>:
 80039d8:	f8d0 22d4 	ldr.w	r2, [r0, #724]	; 0x2d4
 80039dc:	32ae      	adds	r2, #174	; 0xae
 80039de:	b508      	push	{r3, lr}
 80039e0:	f850 2022 	ldr.w	r2, [r0, r2, lsl #2]
 80039e4:	b142      	cbz	r2, 80039f8 <USBD_LL_IsoINIncomplete+0x20>
 80039e6:	f890 329c 	ldrb.w	r3, [r0, #668]	; 0x29c
 80039ea:	2b03      	cmp	r3, #3
 80039ec:	d102      	bne.n	80039f4 <USBD_LL_IsoINIncomplete+0x1c>
 80039ee:	6a13      	ldr	r3, [r2, #32]
 80039f0:	b123      	cbz	r3, 80039fc <USBD_LL_IsoINIncomplete+0x24>
 80039f2:	4798      	blx	r3
 80039f4:	2000      	movs	r0, #0
 80039f6:	e000      	b.n	80039fa <USBD_LL_IsoINIncomplete+0x22>
 80039f8:	2003      	movs	r0, #3
 80039fa:	bd08      	pop	{r3, pc}
 80039fc:	4618      	mov	r0, r3
 80039fe:	e7fc      	b.n	80039fa <USBD_LL_IsoINIncomplete+0x22>

08003a00 <USBD_LL_IsoOUTIncomplete>:
 8003a00:	f8d0 22d4 	ldr.w	r2, [r0, #724]	; 0x2d4
 8003a04:	32ae      	adds	r2, #174	; 0xae
 8003a06:	b508      	push	{r3, lr}
 8003a08:	f850 2022 	ldr.w	r2, [r0, r2, lsl #2]
 8003a0c:	b142      	cbz	r2, 8003a20 <USBD_LL_IsoOUTIncomplete+0x20>
 8003a0e:	f890 329c 	ldrb.w	r3, [r0, #668]	; 0x29c
 8003a12:	2b03      	cmp	r3, #3
 8003a14:	d102      	bne.n	8003a1c <USBD_LL_IsoOUTIncomplete+0x1c>
 8003a16:	6a53      	ldr	r3, [r2, #36]	; 0x24
 8003a18:	b123      	cbz	r3, 8003a24 <USBD_LL_IsoOUTIncomplete+0x24>
 8003a1a:	4798      	blx	r3
 8003a1c:	2000      	movs	r0, #0
 8003a1e:	e000      	b.n	8003a22 <USBD_LL_IsoOUTIncomplete+0x22>
 8003a20:	2003      	movs	r0, #3
 8003a22:	bd08      	pop	{r3, pc}
 8003a24:	4618      	mov	r0, r3
 8003a26:	e7fc      	b.n	8003a22 <USBD_LL_IsoOUTIncomplete+0x22>

08003a28 <USBD_LL_DevConnected>:
 8003a28:	2000      	movs	r0, #0
 8003a2a:	4770      	bx	lr

08003a2c <USBD_LL_DevDisconnected>:
 8003a2c:	2201      	movs	r2, #1
 8003a2e:	b508      	push	{r3, lr}
 8003a30:	f880 229c 	strb.w	r2, [r0, #668]	; 0x29c
 8003a34:	f8d0 22b8 	ldr.w	r2, [r0, #696]	; 0x2b8
 8003a38:	b90a      	cbnz	r2, 8003a3e <USBD_LL_DevDisconnected+0x12>
 8003a3a:	2000      	movs	r0, #0
 8003a3c:	bd08      	pop	{r3, pc}
 8003a3e:	6852      	ldr	r2, [r2, #4]
 8003a40:	7901      	ldrb	r1, [r0, #4]
 8003a42:	4790      	blx	r2
 8003a44:	2800      	cmp	r0, #0
 8003a46:	d0f8      	beq.n	8003a3a <USBD_LL_DevDisconnected+0xe>
 8003a48:	2003      	movs	r0, #3
 8003a4a:	e7f7      	b.n	8003a3c <USBD_LL_DevDisconnected+0x10>

08003a4c <USBD_CoreFindIF>:
 8003a4c:	2000      	movs	r0, #0
 8003a4e:	4770      	bx	lr

08003a50 <USBD_CoreFindEP>:
 8003a50:	2000      	movs	r0, #0
 8003a52:	4770      	bx	lr

08003a54 <USBD_GetEpDesc>:
 8003a54:	b510      	push	{r4, lr}
 8003a56:	8842      	ldrh	r2, [r0, #2]
 8003a58:	7803      	ldrb	r3, [r0, #0]
 8003a5a:	429a      	cmp	r2, r3
 8003a5c:	d90a      	bls.n	8003a74 <USBD_GetEpDesc+0x20>
 8003a5e:	7804      	ldrb	r4, [r0, #0]
 8003a60:	4420      	add	r0, r4
 8003a62:	4423      	add	r3, r4
 8003a64:	7844      	ldrb	r4, [r0, #1]
 8003a66:	2c05      	cmp	r4, #5
 8003a68:	b29b      	uxth	r3, r3
 8003a6a:	d1f6      	bne.n	8003a5a <USBD_GetEpDesc+0x6>
 8003a6c:	7884      	ldrb	r4, [r0, #2]
 8003a6e:	428c      	cmp	r4, r1
 8003a70:	d1f3      	bne.n	8003a5a <USBD_GetEpDesc+0x6>
 8003a72:	bd10      	pop	{r4, pc}
 8003a74:	2000      	movs	r0, #0
 8003a76:	e7fc      	b.n	8003a72 <USBD_GetEpDesc+0x1e>

08003a78 <USBD_CtlError.constprop.0>:
 8003a78:	b510      	push	{r4, lr}
 8003a7a:	2180      	movs	r1, #128	; 0x80
 8003a7c:	4604      	mov	r4, r0
 8003a7e:	f000 fcbf 	bl	8004400 <USBD_LL_StallEP>
 8003a82:	4620      	mov	r0, r4
 8003a84:	2100      	movs	r1, #0
 8003a86:	e8bd 4010 	ldmia.w	sp!, {r4, lr}
 8003a8a:	f000 bcb9 	b.w	8004400 <USBD_LL_StallEP>
	...

08003a90 <USBD_StdDevReq>:
 8003a90:	e92d 41f3 	stmdb	sp!, {r0, r1, r4, r5, r6, r7, r8, lr}
 8003a94:	780d      	ldrb	r5, [r1, #0]
 8003a96:	f005 0560 	and.w	r5, r5, #96	; 0x60
 8003a9a:	2d20      	cmp	r5, #32
 8003a9c:	4604      	mov	r4, r0
 8003a9e:	460e      	mov	r6, r1
 8003aa0:	d014      	beq.n	8003acc <USBD_StdDevReq+0x3c>
 8003aa2:	2d40      	cmp	r5, #64	; 0x40
 8003aa4:	d012      	beq.n	8003acc <USBD_StdDevReq+0x3c>
 8003aa6:	2d00      	cmp	r5, #0
 8003aa8:	f040 8112 	bne.w	8003cd0 <USBD_StdDevReq+0x240>
 8003aac:	784f      	ldrb	r7, [r1, #1]
 8003aae:	2f09      	cmp	r7, #9
 8003ab0:	f200 810e 	bhi.w	8003cd0 <USBD_StdDevReq+0x240>
 8003ab4:	e8df f017 	tbh	[pc, r7, lsl #1]
 8003ab8:	013a0113 	.word	0x013a0113
 8003abc:	0129010c 	.word	0x0129010c
 8003ac0:	008e010c 	.word	0x008e010c
 8003ac4:	010c0016 	.word	0x010c0016
 8003ac8:	00aa00fb 	.word	0x00aa00fb
 8003acc:	f8d4 32d4 	ldr.w	r3, [r4, #724]	; 0x2d4
 8003ad0:	33ae      	adds	r3, #174	; 0xae
 8003ad2:	4631      	mov	r1, r6
 8003ad4:	f854 3023 	ldr.w	r3, [r4, r3, lsl #2]
 8003ad8:	689b      	ldr	r3, [r3, #8]
 8003ada:	4620      	mov	r0, r4
 8003adc:	b002      	add	sp, #8
 8003ade:	e8bd 41f0 	ldmia.w	sp!, {r4, r5, r6, r7, r8, lr}
 8003ae2:	4718      	bx	r3
 8003ae4:	2300      	movs	r3, #0
 8003ae6:	f8ad 3006 	strh.w	r3, [sp, #6]
 8003aea:	884b      	ldrh	r3, [r1, #2]
 8003aec:	0a1a      	lsrs	r2, r3, #8
 8003aee:	3a01      	subs	r2, #1
 8003af0:	2a0e      	cmp	r2, #14
 8003af2:	d80d      	bhi.n	8003b10 <USBD_StdDevReq+0x80>
 8003af4:	e8df f002 	tbb	[pc, r2]
 8003af8:	0c392c13 	.word	0x0c392c13
 8003afc:	0c63590c 	.word	0x0c63590c
 8003b00:	0c0c0c0c 	.word	0x0c0c0c0c
 8003b04:	0c0c      	.short	0x0c0c
 8003b06:	08          	.byte	0x08
 8003b07:	00          	.byte	0x00
 8003b08:	f8d0 32b4 	ldr.w	r3, [r0, #692]	; 0x2b4
 8003b0c:	69db      	ldr	r3, [r3, #28]
 8003b0e:	b94b      	cbnz	r3, 8003b24 <USBD_StdDevReq+0x94>
 8003b10:	4620      	mov	r0, r4
 8003b12:	f7ff ffb1 	bl	8003a78 <USBD_CtlError.constprop.0>
 8003b16:	4628      	mov	r0, r5
 8003b18:	b002      	add	sp, #8
 8003b1a:	e8bd 81f0 	ldmia.w	sp!, {r4, r5, r6, r7, r8, pc}
 8003b1e:	f8d0 32b4 	ldr.w	r3, [r0, #692]	; 0x2b4
 8003b22:	681b      	ldr	r3, [r3, #0]
 8003b24:	7c20      	ldrb	r0, [r4, #16]
 8003b26:	f10d 0106 	add.w	r1, sp, #6
 8003b2a:	4798      	blx	r3
 8003b2c:	88f2      	ldrh	r2, [r6, #6]
 8003b2e:	2a00      	cmp	r2, #0
 8003b30:	f000 80f8 	beq.w	8003d24 <USBD_StdDevReq+0x294>
 8003b34:	f8bd 3006 	ldrh.w	r3, [sp, #6]
 8003b38:	2b00      	cmp	r3, #0
 8003b3a:	d0e9      	beq.n	8003b10 <USBD_StdDevReq+0x80>
 8003b3c:	429a      	cmp	r2, r3
 8003b3e:	bf28      	it	cs
 8003b40:	461a      	movcs	r2, r3
 8003b42:	f8ad 2006 	strh.w	r2, [sp, #6]
 8003b46:	4601      	mov	r1, r0
 8003b48:	4620      	mov	r0, r4
 8003b4a:	f000 f9fa 	bl	8003f42 <USBD_CtlSendData>
 8003b4e:	e7e2      	b.n	8003b16 <USBD_StdDevReq+0x86>
 8003b50:	7c02      	ldrb	r2, [r0, #16]
 8003b52:	f8d0 32b8 	ldr.w	r3, [r0, #696]	; 0x2b8
 8003b56:	b932      	cbnz	r2, 8003b66 <USBD_StdDevReq+0xd6>
 8003b58:	6a9b      	ldr	r3, [r3, #40]	; 0x28
 8003b5a:	f10d 0006 	add.w	r0, sp, #6
 8003b5e:	4798      	blx	r3
 8003b60:	2302      	movs	r3, #2
 8003b62:	7043      	strb	r3, [r0, #1]
 8003b64:	e7e2      	b.n	8003b2c <USBD_StdDevReq+0x9c>
 8003b66:	6adb      	ldr	r3, [r3, #44]	; 0x2c
 8003b68:	e7f7      	b.n	8003b5a <USBD_StdDevReq+0xca>
 8003b6a:	b2db      	uxtb	r3, r3
 8003b6c:	2b05      	cmp	r3, #5
 8003b6e:	d8cf      	bhi.n	8003b10 <USBD_StdDevReq+0x80>
 8003b70:	e8df f003 	tbb	[pc, r3]
 8003b74:	0f0b0703 	.word	0x0f0b0703
 8003b78:	1713      	.short	0x1713
 8003b7a:	f8d0 32b4 	ldr.w	r3, [r0, #692]	; 0x2b4
 8003b7e:	685b      	ldr	r3, [r3, #4]
 8003b80:	e7c5      	b.n	8003b0e <USBD_StdDevReq+0x7e>
 8003b82:	f8d0 32b4 	ldr.w	r3, [r0, #692]	; 0x2b4
 8003b86:	689b      	ldr	r3, [r3, #8]
 8003b88:	e7c1      	b.n	8003b0e <USBD_StdDevReq+0x7e>
 8003b8a:	f8d0 32b4 	ldr.w	r3, [r0, #692]	; 0x2b4
 8003b8e:	68db      	ldr	r3, [r3, #12]
 8003b90:	e7bd      	b.n	8003b0e <USBD_StdDevReq+0x7e>
 8003b92:	f8d0 32b4 	ldr.w	r3, [r0, #692]	; 0x2b4
 8003b96:	691b      	ldr	r3, [r3, #16]
 8003b98:	e7b9      	b.n	8003b0e <USBD_StdDevReq+0x7e>
 8003b9a:	f8d0 32b4 	ldr.w	r3, [r0, #692]	; 0x2b4
 8003b9e:	695b      	ldr	r3, [r3, #20]
 8003ba0:	e7b5      	b.n	8003b0e <USBD_StdDevReq+0x7e>
 8003ba2:	f8d0 32b4 	ldr.w	r3, [r0, #692]	; 0x2b4
 8003ba6:	699b      	ldr	r3, [r3, #24]
 8003ba8:	e7b1      	b.n	8003b0e <USBD_StdDevReq+0x7e>
 8003baa:	7c03      	ldrb	r3, [r0, #16]
 8003bac:	2b00      	cmp	r3, #0
 8003bae:	d1af      	bne.n	8003b10 <USBD_StdDevReq+0x80>
 8003bb0:	f8d0 32b8 	ldr.w	r3, [r0, #696]	; 0x2b8
 8003bb4:	f10d 0006 	add.w	r0, sp, #6
 8003bb8:	6b5b      	ldr	r3, [r3, #52]	; 0x34
 8003bba:	4798      	blx	r3
 8003bbc:	e7b6      	b.n	8003b2c <USBD_StdDevReq+0x9c>
 8003bbe:	7c03      	ldrb	r3, [r0, #16]
 8003bc0:	2b00      	cmp	r3, #0
 8003bc2:	d1a5      	bne.n	8003b10 <USBD_StdDevReq+0x80>
 8003bc4:	f8d0 32b8 	ldr.w	r3, [r0, #696]	; 0x2b8
 8003bc8:	f10d 0006 	add.w	r0, sp, #6
 8003bcc:	6b1b      	ldr	r3, [r3, #48]	; 0x30
 8003bce:	4798      	blx	r3
 8003bd0:	2307      	movs	r3, #7
 8003bd2:	e7c6      	b.n	8003b62 <USBD_StdDevReq+0xd2>
 8003bd4:	888b      	ldrh	r3, [r1, #4]
 8003bd6:	2b00      	cmp	r3, #0
 8003bd8:	d19a      	bne.n	8003b10 <USBD_StdDevReq+0x80>
 8003bda:	88cb      	ldrh	r3, [r1, #6]
 8003bdc:	2b00      	cmp	r3, #0
 8003bde:	d197      	bne.n	8003b10 <USBD_StdDevReq+0x80>
 8003be0:	884e      	ldrh	r6, [r1, #2]
 8003be2:	2e7f      	cmp	r6, #127	; 0x7f
 8003be4:	d894      	bhi.n	8003b10 <USBD_StdDevReq+0x80>
 8003be6:	f890 329c 	ldrb.w	r3, [r0, #668]	; 0x29c
 8003bea:	2b03      	cmp	r3, #3
 8003bec:	d090      	beq.n	8003b10 <USBD_StdDevReq+0x80>
 8003bee:	b2f1      	uxtb	r1, r6
 8003bf0:	f880 129e 	strb.w	r1, [r0, #670]	; 0x29e
 8003bf4:	f000 fc16 	bl	8004424 <USBD_LL_SetUSBAddress>
 8003bf8:	4620      	mov	r0, r4
 8003bfa:	f000 f9cc 	bl	8003f96 <USBD_CtlSendStatus>
 8003bfe:	b11e      	cbz	r6, 8003c08 <USBD_StdDevReq+0x178>
 8003c00:	2302      	movs	r3, #2
 8003c02:	f884 329c 	strb.w	r3, [r4, #668]	; 0x29c
 8003c06:	e786      	b.n	8003b16 <USBD_StdDevReq+0x86>
 8003c08:	2301      	movs	r3, #1
 8003c0a:	e7fa      	b.n	8003c02 <USBD_StdDevReq+0x172>
 8003c0c:	788e      	ldrb	r6, [r1, #2]
 8003c0e:	4f4d      	ldr	r7, [pc, #308]	; (8003d44 <USBD_StdDevReq+0x2b4>)
 8003c10:	2e01      	cmp	r6, #1
 8003c12:	703e      	strb	r6, [r7, #0]
 8003c14:	d903      	bls.n	8003c1e <USBD_StdDevReq+0x18e>
 8003c16:	f7ff ff2f 	bl	8003a78 <USBD_CtlError.constprop.0>
 8003c1a:	2503      	movs	r5, #3
 8003c1c:	e77b      	b.n	8003b16 <USBD_StdDevReq+0x86>
 8003c1e:	f890 329c 	ldrb.w	r3, [r0, #668]	; 0x29c
 8003c22:	2b02      	cmp	r3, #2
 8003c24:	fa5f f883 	uxtb.w	r8, r3
 8003c28:	d009      	beq.n	8003c3e <USBD_StdDevReq+0x1ae>
 8003c2a:	f1b8 0f03 	cmp.w	r8, #3
 8003c2e:	d018      	beq.n	8003c62 <USBD_StdDevReq+0x1d2>
 8003c30:	f7ff ff22 	bl	8003a78 <USBD_CtlError.constprop.0>
 8003c34:	7839      	ldrb	r1, [r7, #0]
 8003c36:	4620      	mov	r0, r4
 8003c38:	f7ff fdb5 	bl	80037a6 <USBD_ClrClassConfig>
 8003c3c:	e7ed      	b.n	8003c1a <USBD_StdDevReq+0x18a>
 8003c3e:	2e00      	cmp	r6, #0
 8003c40:	d070      	beq.n	8003d24 <USBD_StdDevReq+0x294>
 8003c42:	2101      	movs	r1, #1
 8003c44:	6041      	str	r1, [r0, #4]
 8003c46:	f7ff fda7 	bl	8003798 <USBD_SetClassConfig>
 8003c4a:	4605      	mov	r5, r0
 8003c4c:	4620      	mov	r0, r4
 8003c4e:	b125      	cbz	r5, 8003c5a <USBD_StdDevReq+0x1ca>
 8003c50:	f7ff ff12 	bl	8003a78 <USBD_CtlError.constprop.0>
 8003c54:	f884 829c 	strb.w	r8, [r4, #668]	; 0x29c
 8003c58:	e75d      	b.n	8003b16 <USBD_StdDevReq+0x86>
 8003c5a:	f000 f99c 	bl	8003f96 <USBD_CtlSendStatus>
 8003c5e:	2303      	movs	r3, #3
 8003c60:	e7cf      	b.n	8003c02 <USBD_StdDevReq+0x172>
 8003c62:	b95e      	cbnz	r6, 8003c7c <USBD_StdDevReq+0x1ec>
 8003c64:	2302      	movs	r3, #2
 8003c66:	f880 329c 	strb.w	r3, [r0, #668]	; 0x29c
 8003c6a:	6046      	str	r6, [r0, #4]
 8003c6c:	4631      	mov	r1, r6
 8003c6e:	f7ff fd9a 	bl	80037a6 <USBD_ClrClassConfig>
 8003c72:	4620      	mov	r0, r4
 8003c74:	f000 f98f 	bl	8003f96 <USBD_CtlSendStatus>
 8003c78:	4635      	mov	r5, r6
 8003c7a:	e74c      	b.n	8003b16 <USBD_StdDevReq+0x86>
 8003c7c:	6841      	ldr	r1, [r0, #4]
 8003c7e:	2901      	cmp	r1, #1
 8003c80:	d050      	beq.n	8003d24 <USBD_StdDevReq+0x294>
 8003c82:	b2c9      	uxtb	r1, r1
 8003c84:	f7ff fd8f 	bl	80037a6 <USBD_ClrClassConfig>
 8003c88:	7839      	ldrb	r1, [r7, #0]
 8003c8a:	6061      	str	r1, [r4, #4]
 8003c8c:	4620      	mov	r0, r4
 8003c8e:	f7ff fd83 	bl	8003798 <USBD_SetClassConfig>
 8003c92:	4606      	mov	r6, r0
 8003c94:	2800      	cmp	r0, #0
 8003c96:	d045      	beq.n	8003d24 <USBD_StdDevReq+0x294>
 8003c98:	4620      	mov	r0, r4
 8003c9a:	f7ff feed 	bl	8003a78 <USBD_CtlError.constprop.0>
 8003c9e:	7921      	ldrb	r1, [r4, #4]
 8003ca0:	4620      	mov	r0, r4
 8003ca2:	f7ff fd80 	bl	80037a6 <USBD_ClrClassConfig>
 8003ca6:	2302      	movs	r3, #2
 8003ca8:	f884 329c 	strb.w	r3, [r4, #668]	; 0x29c
 8003cac:	e7e4      	b.n	8003c78 <USBD_StdDevReq+0x1e8>
 8003cae:	88ca      	ldrh	r2, [r1, #6]
 8003cb0:	2a01      	cmp	r2, #1
 8003cb2:	f47f af2d 	bne.w	8003b10 <USBD_StdDevReq+0x80>
 8003cb6:	f890 129c 	ldrb.w	r1, [r0, #668]	; 0x29c
 8003cba:	2902      	cmp	r1, #2
 8003cbc:	b2cb      	uxtb	r3, r1
 8003cbe:	d805      	bhi.n	8003ccc <USBD_StdDevReq+0x23c>
 8003cc0:	b133      	cbz	r3, 8003cd0 <USBD_StdDevReq+0x240>
 8003cc2:	4601      	mov	r1, r0
 8003cc4:	2300      	movs	r3, #0
 8003cc6:	f841 3f08 	str.w	r3, [r1, #8]!
 8003cca:	e73d      	b.n	8003b48 <USBD_StdDevReq+0xb8>
 8003ccc:	2b03      	cmp	r3, #3
 8003cce:	d004      	beq.n	8003cda <USBD_StdDevReq+0x24a>
 8003cd0:	4620      	mov	r0, r4
 8003cd2:	f7ff fed1 	bl	8003a78 <USBD_CtlError.constprop.0>
 8003cd6:	2500      	movs	r5, #0
 8003cd8:	e71d      	b.n	8003b16 <USBD_StdDevReq+0x86>
 8003cda:	1d01      	adds	r1, r0, #4
 8003cdc:	e734      	b.n	8003b48 <USBD_StdDevReq+0xb8>
 8003cde:	f890 329c 	ldrb.w	r3, [r0, #668]	; 0x29c
 8003ce2:	3b01      	subs	r3, #1
 8003ce4:	2b02      	cmp	r3, #2
 8003ce6:	d8f3      	bhi.n	8003cd0 <USBD_StdDevReq+0x240>
 8003ce8:	88ca      	ldrh	r2, [r1, #6]
 8003cea:	2a02      	cmp	r2, #2
 8003cec:	f47f af10 	bne.w	8003b10 <USBD_StdDevReq+0x80>
 8003cf0:	f8d0 32a4 	ldr.w	r3, [r0, #676]	; 0x2a4
 8003cf4:	4601      	mov	r1, r0
 8003cf6:	2b00      	cmp	r3, #0
 8003cf8:	bf14      	ite	ne
 8003cfa:	2303      	movne	r3, #3
 8003cfc:	2301      	moveq	r3, #1
 8003cfe:	f841 3f0c 	str.w	r3, [r1, #12]!
 8003d02:	f000 f91e 	bl	8003f42 <USBD_CtlSendData>
 8003d06:	463d      	mov	r5, r7
 8003d08:	e705      	b.n	8003b16 <USBD_StdDevReq+0x86>
 8003d0a:	884b      	ldrh	r3, [r1, #2]
 8003d0c:	2b01      	cmp	r3, #1
 8003d0e:	d102      	bne.n	8003d16 <USBD_StdDevReq+0x286>
 8003d10:	f8c4 32a4 	str.w	r3, [r4, #676]	; 0x2a4
 8003d14:	e006      	b.n	8003d24 <USBD_StdDevReq+0x294>
 8003d16:	2b02      	cmp	r3, #2
 8003d18:	f47f aefa 	bne.w	8003b10 <USBD_StdDevReq+0x80>
 8003d1c:	888b      	ldrh	r3, [r1, #4]
 8003d1e:	0a1b      	lsrs	r3, r3, #8
 8003d20:	f880 32a0 	strb.w	r3, [r0, #672]	; 0x2a0
 8003d24:	4620      	mov	r0, r4
 8003d26:	f000 f936 	bl	8003f96 <USBD_CtlSendStatus>
 8003d2a:	e6f4      	b.n	8003b16 <USBD_StdDevReq+0x86>
 8003d2c:	f890 329c 	ldrb.w	r3, [r0, #668]	; 0x29c
 8003d30:	3b01      	subs	r3, #1
 8003d32:	2b02      	cmp	r3, #2
 8003d34:	d8cc      	bhi.n	8003cd0 <USBD_StdDevReq+0x240>
 8003d36:	884b      	ldrh	r3, [r1, #2]
 8003d38:	2b01      	cmp	r3, #1
 8003d3a:	f47f aeec 	bne.w	8003b16 <USBD_StdDevReq+0x86>
 8003d3e:	2300      	movs	r3, #0
 8003d40:	e7e6      	b.n	8003d10 <USBD_StdDevReq+0x280>
 8003d42:	bf00      	nop
 8003d44:	20000244 	.word	0x20000244

08003d48 <USBD_StdItfReq>:
 8003d48:	b570      	push	{r4, r5, r6, lr}
 8003d4a:	780b      	ldrb	r3, [r1, #0]
 8003d4c:	f003 0260 	and.w	r2, r3, #96	; 0x60
 8003d50:	2a40      	cmp	r2, #64	; 0x40
 8003d52:	4604      	mov	r4, r0
 8003d54:	460e      	mov	r6, r1
 8003d56:	d001      	beq.n	8003d5c <USBD_StdItfReq+0x14>
 8003d58:	065b      	lsls	r3, r3, #25
 8003d5a:	d41f      	bmi.n	8003d9c <USBD_StdItfReq+0x54>
 8003d5c:	f894 329c 	ldrb.w	r3, [r4, #668]	; 0x29c
 8003d60:	3b01      	subs	r3, #1
 8003d62:	2b02      	cmp	r3, #2
 8003d64:	d81a      	bhi.n	8003d9c <USBD_StdItfReq+0x54>
 8003d66:	7931      	ldrb	r1, [r6, #4]
 8003d68:	2901      	cmp	r1, #1
 8003d6a:	4620      	mov	r0, r4
 8003d6c:	d817      	bhi.n	8003d9e <USBD_StdItfReq+0x56>
 8003d6e:	f7ff fe6d 	bl	8003a4c <USBD_CoreFindIF>
 8003d72:	b988      	cbnz	r0, 8003d98 <USBD_StdItfReq+0x50>
 8003d74:	f8d4 32b8 	ldr.w	r3, [r4, #696]	; 0x2b8
 8003d78:	689b      	ldr	r3, [r3, #8]
 8003d7a:	b16b      	cbz	r3, 8003d98 <USBD_StdItfReq+0x50>
 8003d7c:	f8c4 02d4 	str.w	r0, [r4, #724]	; 0x2d4
 8003d80:	4631      	mov	r1, r6
 8003d82:	4620      	mov	r0, r4
 8003d84:	4798      	blx	r3
 8003d86:	4605      	mov	r5, r0
 8003d88:	88f3      	ldrh	r3, [r6, #6]
 8003d8a:	b91b      	cbnz	r3, 8003d94 <USBD_StdItfReq+0x4c>
 8003d8c:	b915      	cbnz	r5, 8003d94 <USBD_StdItfReq+0x4c>
 8003d8e:	4620      	mov	r0, r4
 8003d90:	f000 f901 	bl	8003f96 <USBD_CtlSendStatus>
 8003d94:	4628      	mov	r0, r5
 8003d96:	bd70      	pop	{r4, r5, r6, pc}
 8003d98:	2503      	movs	r5, #3
 8003d9a:	e7f5      	b.n	8003d88 <USBD_StdItfReq+0x40>
 8003d9c:	4620      	mov	r0, r4
 8003d9e:	f7ff fe6b 	bl	8003a78 <USBD_CtlError.constprop.0>
 8003da2:	2500      	movs	r5, #0
 8003da4:	e7f6      	b.n	8003d94 <USBD_StdItfReq+0x4c>

08003da6 <USBD_StdEPReq>:
 8003da6:	b570      	push	{r4, r5, r6, lr}
 8003da8:	780b      	ldrb	r3, [r1, #0]
 8003daa:	888a      	ldrh	r2, [r1, #4]
 8003dac:	790d      	ldrb	r5, [r1, #4]
 8003dae:	f003 0360 	and.w	r3, r3, #96	; 0x60
 8003db2:	2b20      	cmp	r3, #32
 8003db4:	4604      	mov	r4, r0
 8003db6:	460e      	mov	r6, r1
 8003db8:	d05a      	beq.n	8003e70 <USBD_StdEPReq+0xca>
 8003dba:	2b40      	cmp	r3, #64	; 0x40
 8003dbc:	d058      	beq.n	8003e70 <USBD_StdEPReq+0xca>
 8003dbe:	bb9b      	cbnz	r3, 8003e28 <USBD_StdEPReq+0x82>
 8003dc0:	784b      	ldrb	r3, [r1, #1]
 8003dc2:	2b01      	cmp	r3, #1
 8003dc4:	d042      	beq.n	8003e4c <USBD_StdEPReq+0xa6>
 8003dc6:	2b03      	cmp	r3, #3
 8003dc8:	d027      	beq.n	8003e1a <USBD_StdEPReq+0x74>
 8003dca:	bb6b      	cbnz	r3, 8003e28 <USBD_StdEPReq+0x82>
 8003dcc:	f890 329c 	ldrb.w	r3, [r0, #668]	; 0x29c
 8003dd0:	2b02      	cmp	r3, #2
 8003dd2:	b2d9      	uxtb	r1, r3
 8003dd4:	d068      	beq.n	8003ea8 <USBD_StdEPReq+0x102>
 8003dd6:	2903      	cmp	r1, #3
 8003dd8:	d126      	bne.n	8003e28 <USBD_StdEPReq+0x82>
 8003dda:	f005 030f 	and.w	r3, r5, #15
 8003dde:	f012 0f80 	tst.w	r2, #128	; 0x80
 8003de2:	f04f 0214 	mov.w	r2, #20
 8003de6:	fb02 0303 	mla	r3, r2, r3, r0
 8003dea:	d06c      	beq.n	8003ec6 <USBD_StdEPReq+0x120>
 8003dec:	8c9b      	ldrh	r3, [r3, #36]	; 0x24
 8003dee:	b1db      	cbz	r3, 8003e28 <USBD_StdEPReq+0x82>
 8003df0:	f005 067f 	and.w	r6, r5, #127	; 0x7f
 8003df4:	3601      	adds	r6, #1
 8003df6:	eb06 0686 	add.w	r6, r6, r6, lsl #2
 8003dfa:	eb00 0686 	add.w	r6, r0, r6, lsl #2
 8003dfe:	f015 007f 	ands.w	r0, r5, #127	; 0x7f
 8003e02:	d006      	beq.n	8003e12 <USBD_StdEPReq+0x6c>
 8003e04:	4629      	mov	r1, r5
 8003e06:	4620      	mov	r0, r4
 8003e08:	f000 fa84 	bl	8004314 <USBD_LL_IsStallEP>
 8003e0c:	3800      	subs	r0, #0
 8003e0e:	bf18      	it	ne
 8003e10:	2001      	movne	r0, #1
 8003e12:	6030      	str	r0, [r6, #0]
 8003e14:	2202      	movs	r2, #2
 8003e16:	4631      	mov	r1, r6
 8003e18:	e051      	b.n	8003ebe <USBD_StdEPReq+0x118>
 8003e1a:	f890 329c 	ldrb.w	r3, [r0, #668]	; 0x29c
 8003e1e:	2b02      	cmp	r3, #2
 8003e20:	b2da      	uxtb	r2, r3
 8003e22:	d037      	beq.n	8003e94 <USBD_StdEPReq+0xee>
 8003e24:	2a03      	cmp	r2, #3
 8003e26:	d003      	beq.n	8003e30 <USBD_StdEPReq+0x8a>
 8003e28:	4620      	mov	r0, r4
 8003e2a:	f7ff fe25 	bl	8003a78 <USBD_CtlError.constprop.0>
 8003e2e:	e00b      	b.n	8003e48 <USBD_StdEPReq+0xa2>
 8003e30:	884b      	ldrh	r3, [r1, #2]
 8003e32:	b933      	cbnz	r3, 8003e42 <USBD_StdEPReq+0x9c>
 8003e34:	0669      	lsls	r1, r5, #25
 8003e36:	d004      	beq.n	8003e42 <USBD_StdEPReq+0x9c>
 8003e38:	88f3      	ldrh	r3, [r6, #6]
 8003e3a:	b913      	cbnz	r3, 8003e42 <USBD_StdEPReq+0x9c>
 8003e3c:	4629      	mov	r1, r5
 8003e3e:	f000 fadf 	bl	8004400 <USBD_LL_StallEP>
 8003e42:	4620      	mov	r0, r4
 8003e44:	f000 f8a7 	bl	8003f96 <USBD_CtlSendStatus>
 8003e48:	2000      	movs	r0, #0
 8003e4a:	bd70      	pop	{r4, r5, r6, pc}
 8003e4c:	f890 329c 	ldrb.w	r3, [r0, #668]	; 0x29c
 8003e50:	2b02      	cmp	r3, #2
 8003e52:	b2da      	uxtb	r2, r3
 8003e54:	d01e      	beq.n	8003e94 <USBD_StdEPReq+0xee>
 8003e56:	2a03      	cmp	r2, #3
 8003e58:	d1e6      	bne.n	8003e28 <USBD_StdEPReq+0x82>
 8003e5a:	884b      	ldrh	r3, [r1, #2]
 8003e5c:	2b00      	cmp	r3, #0
 8003e5e:	d1f3      	bne.n	8003e48 <USBD_StdEPReq+0xa2>
 8003e60:	066b      	lsls	r3, r5, #25
 8003e62:	d002      	beq.n	8003e6a <USBD_StdEPReq+0xc4>
 8003e64:	4629      	mov	r1, r5
 8003e66:	f000 fad4 	bl	8004412 <USBD_LL_ClearStallEP>
 8003e6a:	4620      	mov	r0, r4
 8003e6c:	f000 f893 	bl	8003f96 <USBD_CtlSendStatus>
 8003e70:	4629      	mov	r1, r5
 8003e72:	4620      	mov	r0, r4
 8003e74:	f7ff fdec 	bl	8003a50 <USBD_CoreFindEP>
 8003e78:	2800      	cmp	r0, #0
 8003e7a:	d1e5      	bne.n	8003e48 <USBD_StdEPReq+0xa2>
 8003e7c:	f8d4 32b8 	ldr.w	r3, [r4, #696]	; 0x2b8
 8003e80:	f8c4 02d4 	str.w	r0, [r4, #724]	; 0x2d4
 8003e84:	689b      	ldr	r3, [r3, #8]
 8003e86:	2b00      	cmp	r3, #0
 8003e88:	d0de      	beq.n	8003e48 <USBD_StdEPReq+0xa2>
 8003e8a:	4631      	mov	r1, r6
 8003e8c:	4620      	mov	r0, r4
 8003e8e:	e8bd 4070 	ldmia.w	sp!, {r4, r5, r6, lr}
 8003e92:	4718      	bx	r3
 8003e94:	066a      	lsls	r2, r5, #25
 8003e96:	d0c7      	beq.n	8003e28 <USBD_StdEPReq+0x82>
 8003e98:	4629      	mov	r1, r5
 8003e9a:	f000 fab1 	bl	8004400 <USBD_LL_StallEP>
 8003e9e:	2180      	movs	r1, #128	; 0x80
 8003ea0:	4620      	mov	r0, r4
 8003ea2:	f000 faad 	bl	8004400 <USBD_LL_StallEP>
 8003ea6:	e7cf      	b.n	8003e48 <USBD_StdEPReq+0xa2>
 8003ea8:	0669      	lsls	r1, r5, #25
 8003eaa:	d1bd      	bne.n	8003e28 <USBD_StdEPReq+0x82>
 8003eac:	0613      	lsls	r3, r2, #24
 8003eae:	bf4c      	ite	mi
 8003eb0:	f100 0114 	addmi.w	r1, r0, #20
 8003eb4:	f500 71aa 	addpl.w	r1, r0, #340	; 0x154
 8003eb8:	2300      	movs	r3, #0
 8003eba:	600b      	str	r3, [r1, #0]
 8003ebc:	2202      	movs	r2, #2
 8003ebe:	4620      	mov	r0, r4
 8003ec0:	f000 f83f 	bl	8003f42 <USBD_CtlSendData>
 8003ec4:	e7c0      	b.n	8003e48 <USBD_StdEPReq+0xa2>
 8003ec6:	f8b3 3164 	ldrh.w	r3, [r3, #356]	; 0x164
 8003eca:	2b00      	cmp	r3, #0
 8003ecc:	d0ac      	beq.n	8003e28 <USBD_StdEPReq+0x82>
 8003ece:	f005 067f 	and.w	r6, r5, #127	; 0x7f
 8003ed2:	2314      	movs	r3, #20
 8003ed4:	fb03 0606 	mla	r6, r3, r6, r0
 8003ed8:	f506 76aa 	add.w	r6, r6, #340	; 0x154
 8003edc:	e78f      	b.n	8003dfe <USBD_StdEPReq+0x58>

08003ede <USBD_ParseSetupRequest>:
 8003ede:	780b      	ldrb	r3, [r1, #0]
 8003ee0:	7003      	strb	r3, [r0, #0]
 8003ee2:	784b      	ldrb	r3, [r1, #1]
 8003ee4:	7043      	strb	r3, [r0, #1]
 8003ee6:	884b      	ldrh	r3, [r1, #2]
 8003ee8:	8043      	strh	r3, [r0, #2]
 8003eea:	888b      	ldrh	r3, [r1, #4]
 8003eec:	8083      	strh	r3, [r0, #4]
 8003eee:	88cb      	ldrh	r3, [r1, #6]
 8003ef0:	80c3      	strh	r3, [r0, #6]
 8003ef2:	4770      	bx	lr

08003ef4 <USBD_CtlError>:
 8003ef4:	b510      	push	{r4, lr}
 8003ef6:	2180      	movs	r1, #128	; 0x80
 8003ef8:	4604      	mov	r4, r0
 8003efa:	f000 fa81 	bl	8004400 <USBD_LL_StallEP>
 8003efe:	4620      	mov	r0, r4
 8003f00:	2100      	movs	r1, #0
 8003f02:	e8bd 4010 	ldmia.w	sp!, {r4, lr}
 8003f06:	f000 ba7b 	b.w	8004400 <USBD_LL_StallEP>

08003f0a <USBD_GetString>:
 8003f0a:	b530      	push	{r4, r5, lr}
 8003f0c:	b188      	cbz	r0, 8003f32 <USBD_GetString+0x28>
 8003f0e:	2400      	movs	r4, #0
 8003f10:	3801      	subs	r0, #1
 8003f12:	4623      	mov	r3, r4
 8003f14:	3401      	adds	r4, #1
 8003f16:	5d05      	ldrb	r5, [r0, r4]
 8003f18:	2d00      	cmp	r5, #0
 8003f1a:	d1fa      	bne.n	8003f12 <USBD_GetString+0x8>
 8003f1c:	b2db      	uxtb	r3, r3
 8003f1e:	3301      	adds	r3, #1
 8003f20:	005b      	lsls	r3, r3, #1
 8003f22:	8013      	strh	r3, [r2, #0]
 8003f24:	700b      	strb	r3, [r1, #0]
 8003f26:	2303      	movs	r3, #3
 8003f28:	704b      	strb	r3, [r1, #1]
 8003f2a:	2302      	movs	r3, #2
 8003f2c:	f810 2f01 	ldrb.w	r2, [r0, #1]!
 8003f30:	b902      	cbnz	r2, 8003f34 <USBD_GetString+0x2a>
 8003f32:	bd30      	pop	{r4, r5, pc}
 8003f34:	54ca      	strb	r2, [r1, r3]
 8003f36:	1c5a      	adds	r2, r3, #1
 8003f38:	b2d2      	uxtb	r2, r2
 8003f3a:	3302      	adds	r3, #2
 8003f3c:	548d      	strb	r5, [r1, r2]
 8003f3e:	b2db      	uxtb	r3, r3
 8003f40:	e7f4      	b.n	8003f2c <USBD_GetString+0x22>

08003f42 <USBD_CtlSendData>:
 8003f42:	b510      	push	{r4, lr}
 8003f44:	4613      	mov	r3, r2
 8003f46:	2202      	movs	r2, #2
 8003f48:	e9c0 3306 	strd	r3, r3, [r0, #24]
 8003f4c:	f8c0 2294 	str.w	r2, [r0, #660]	; 0x294
 8003f50:	460a      	mov	r2, r1
 8003f52:	2100      	movs	r1, #0
 8003f54:	f000 fa6f 	bl	8004436 <USBD_LL_Transmit>
 8003f58:	2000      	movs	r0, #0
 8003f5a:	bd10      	pop	{r4, pc}

08003f5c <USBD_CtlContinueSendData>:
 8003f5c:	b508      	push	{r3, lr}
 8003f5e:	4613      	mov	r3, r2
 8003f60:	460a      	mov	r2, r1
 8003f62:	2100      	movs	r1, #0
 8003f64:	f000 fa67 	bl	8004436 <USBD_LL_Transmit>
 8003f68:	2000      	movs	r0, #0
 8003f6a:	bd08      	pop	{r3, pc}

08003f6c <USBD_CtlPrepareRx>:
 8003f6c:	b510      	push	{r4, lr}
 8003f6e:	4613      	mov	r3, r2
 8003f70:	2203      	movs	r2, #3
 8003f72:	e9c0 3356 	strd	r3, r3, [r0, #344]	; 0x158
 8003f76:	f8c0 2294 	str.w	r2, [r0, #660]	; 0x294
 8003f7a:	460a      	mov	r2, r1
 8003f7c:	2100      	movs	r1, #0
 8003f7e:	f000 fa63 	bl	8004448 <USBD_LL_PrepareReceive>
 8003f82:	2000      	movs	r0, #0
 8003f84:	bd10      	pop	{r4, pc}

08003f86 <USBD_CtlContinueRx>:
 8003f86:	b508      	push	{r3, lr}
 8003f88:	4613      	mov	r3, r2
 8003f8a:	460a      	mov	r2, r1
 8003f8c:	2100      	movs	r1, #0
 8003f8e:	f000 fa5b 	bl	8004448 <USBD_LL_PrepareReceive>
 8003f92:	2000      	movs	r0, #0
 8003f94:	bd08      	pop	{r3, pc}

08003f96 <USBD_CtlSendStatus>:
 8003f96:	b508      	push	{r3, lr}
 8003f98:	2204      	movs	r2, #4
 8003f9a:	2300      	movs	r3, #0
 8003f9c:	f8c0 2294 	str.w	r2, [r0, #660]	; 0x294
 8003fa0:	4619      	mov	r1, r3
 8003fa2:	461a      	mov	r2, r3
 8003fa4:	f000 fa47 	bl	8004436 <USBD_LL_Transmit>
 8003fa8:	2000      	movs	r0, #0
 8003faa:	bd08      	pop	{r3, pc}

08003fac <USBD_CtlReceiveStatus>:
 8003fac:	b508      	push	{r3, lr}
 8003fae:	2205      	movs	r2, #5
 8003fb0:	2300      	movs	r3, #0
 8003fb2:	f8c0 2294 	str.w	r2, [r0, #660]	; 0x294
 8003fb6:	4619      	mov	r1, r3
 8003fb8:	461a      	mov	r2, r3
 8003fba:	f000 fa45 	bl	8004448 <USBD_LL_PrepareReceive>
 8003fbe:	2000      	movs	r0, #0
 8003fc0:	bd08      	pop	{r3, pc}
	...

08003fc4 <MX_USB_DEVICE_Init>:
 8003fc4:	b508      	push	{r3, lr}
 8003fc6:	490f      	ldr	r1, [pc, #60]	; (8004004 <MX_USB_DEVICE_Init+0x40>)
 8003fc8:	480f      	ldr	r0, [pc, #60]	; (8004008 <MX_USB_DEVICE_Init+0x44>)
 8003fca:	2200      	movs	r2, #0
 8003fcc:	f7ff fbb6 	bl	800373c <USBD_Init>
 8003fd0:	b108      	cbz	r0, 8003fd6 <MX_USB_DEVICE_Init+0x12>
 8003fd2:	f7fc fa95 	bl	8000500 <Error_Handler>
 8003fd6:	490d      	ldr	r1, [pc, #52]	; (800400c <MX_USB_DEVICE_Init+0x48>)
 8003fd8:	480b      	ldr	r0, [pc, #44]	; (8004008 <MX_USB_DEVICE_Init+0x44>)
 8003fda:	f7ff fbc2 	bl	8003762 <USBD_RegisterClass>
 8003fde:	b108      	cbz	r0, 8003fe4 <MX_USB_DEVICE_Init+0x20>
 8003fe0:	f7fc fa8e 	bl	8000500 <Error_Handler>
 8003fe4:	490a      	ldr	r1, [pc, #40]	; (8004010 <MX_USB_DEVICE_Init+0x4c>)
 8003fe6:	4808      	ldr	r0, [pc, #32]	; (8004008 <MX_USB_DEVICE_Init+0x44>)
 8003fe8:	f7ff fb69 	bl	80036be <USBD_CDC_RegisterInterface>
 8003fec:	b108      	cbz	r0, 8003ff2 <MX_USB_DEVICE_Init+0x2e>
 8003fee:	f7fc fa87 	bl	8000500 <Error_Handler>
 8003ff2:	4805      	ldr	r0, [pc, #20]	; (8004008 <MX_USB_DEVICE_Init+0x44>)
 8003ff4:	f7ff fbce 	bl	8003794 <USBD_Start>
 8003ff8:	b118      	cbz	r0, 8004002 <MX_USB_DEVICE_Init+0x3e>
 8003ffa:	e8bd 4008 	ldmia.w	sp!, {r3, lr}
 8003ffe:	f7fc ba7f 	b.w	8000500 <Error_Handler>
 8004002:	bd08      	pop	{r3, pc}
 8004004:	200000a8 	.word	0x200000a8
 8004008:	20000248 	.word	0x20000248
 800400c:	2000000c 	.word	0x2000000c
 8004010:	20000094 	.word	0x20000094

08004014 <CDC_DeInit_FS>:
 8004014:	2000      	movs	r0, #0
 8004016:	4770      	bx	lr

08004018 <CDC_Control_FS>:
 8004018:	2000      	movs	r0, #0
 800401a:	4770      	bx	lr

0800401c <CDC_TransmitCplt_FS>:
 800401c:	2000      	movs	r0, #0
 800401e:	4770      	bx	lr

08004020 <CDC_Receive_FS>:
 8004020:	b510      	push	{r4, lr}
 8004022:	4c05      	ldr	r4, [pc, #20]	; (8004038 <CDC_Receive_FS+0x18>)
 8004024:	4601      	mov	r1, r0
 8004026:	4620      	mov	r0, r4
 8004028:	f7ff fb62 	bl	80036f0 <USBD_CDC_SetRxBuffer>
 800402c:	4620      	mov	r0, r4
 800402e:	f7ff fb6b 	bl	8003708 <USBD_CDC_ReceivePacket>
 8004032:	2000      	movs	r0, #0
 8004034:	bd10      	pop	{r4, pc}
 8004036:	bf00      	nop
 8004038:	20000248 	.word	0x20000248

0800403c <CDC_Init_FS>:
 800403c:	b510      	push	{r4, lr}
 800403e:	4c06      	ldr	r4, [pc, #24]	; (8004058 <CDC_Init_FS+0x1c>)
 8004040:	4906      	ldr	r1, [pc, #24]	; (800405c <CDC_Init_FS+0x20>)
 8004042:	2200      	movs	r2, #0
 8004044:	4620      	mov	r0, r4
 8004046:	f7ff fb45 	bl	80036d4 <USBD_CDC_SetTxBuffer>
 800404a:	4905      	ldr	r1, [pc, #20]	; (8004060 <CDC_Init_FS+0x24>)
 800404c:	4620      	mov	r0, r4
 800404e:	f7ff fb4f 	bl	80036f0 <USBD_CDC_SetRxBuffer>
 8004052:	2000      	movs	r0, #0
 8004054:	bd10      	pop	{r4, pc}
 8004056:	bf00      	nop
 8004058:	20000248 	.word	0x20000248
 800405c:	20000d24 	.word	0x20000d24
 8004060:	20000524 	.word	0x20000524

08004064 <USBD_FS_DeviceDescriptor>:
 8004064:	2312      	movs	r3, #18
 8004066:	4801      	ldr	r0, [pc, #4]	; (800406c <USBD_FS_DeviceDescriptor+0x8>)
 8004068:	800b      	strh	r3, [r1, #0]
 800406a:	4770      	bx	lr
 800406c:	200000d4 	.word	0x200000d4

08004070 <USBD_FS_LangIDStrDescriptor>:
 8004070:	2304      	movs	r3, #4
 8004072:	4801      	ldr	r0, [pc, #4]	; (8004078 <USBD_FS_LangIDStrDescriptor+0x8>)
 8004074:	800b      	strh	r3, [r1, #0]
 8004076:	4770      	bx	lr
 8004078:	200000e8 	.word	0x200000e8

0800407c <USBD_FS_USR_BOSDescriptor>:
 800407c:	230c      	movs	r3, #12
 800407e:	4801      	ldr	r0, [pc, #4]	; (8004084 <USBD_FS_USR_BOSDescriptor+0x8>)
 8004080:	800b      	strh	r3, [r1, #0]
 8004082:	4770      	bx	lr
 8004084:	200000c8 	.word	0x200000c8

08004088 <IntToUnicode>:
 8004088:	2300      	movs	r3, #0
 800408a:	b570      	push	{r4, r5, r6, lr}
 800408c:	1c4d      	adds	r5, r1, #1
 800408e:	461e      	mov	r6, r3
 8004090:	0f04      	lsrs	r4, r0, #28
 8004092:	f1b0 4f20 	cmp.w	r0, #2684354560	; 0xa0000000
 8004096:	bf34      	ite	cc
 8004098:	3430      	addcc	r4, #48	; 0x30
 800409a:	3437      	addcs	r4, #55	; 0x37
 800409c:	f801 4013 	strb.w	r4, [r1, r3, lsl #1]
 80040a0:	f805 6013 	strb.w	r6, [r5, r3, lsl #1]
 80040a4:	3301      	adds	r3, #1
 80040a6:	b2dc      	uxtb	r4, r3
 80040a8:	42a2      	cmp	r2, r4
 80040aa:	ea4f 1000 	mov.w	r0, r0, lsl #4
 80040ae:	d8ef      	bhi.n	8004090 <IntToUnicode+0x8>
 80040b0:	bd70      	pop	{r4, r5, r6, pc}
	...

080040b4 <USBD_FS_SerialStrDescriptor>:
 80040b4:	231a      	movs	r3, #26
 80040b6:	b510      	push	{r4, lr}
 80040b8:	800b      	strh	r3, [r1, #0]
 80040ba:	4b0a      	ldr	r3, [pc, #40]	; (80040e4 <USBD_FS_SerialStrDescriptor+0x30>)
 80040bc:	f8d3 0a10 	ldr.w	r0, [r3, #2576]	; 0xa10
 80040c0:	f8d3 2a18 	ldr.w	r2, [r3, #2584]	; 0xa18
 80040c4:	1880      	adds	r0, r0, r2
 80040c6:	d00a      	beq.n	80040de <USBD_FS_SerialStrDescriptor+0x2a>
 80040c8:	f8d3 4a14 	ldr.w	r4, [r3, #2580]	; 0xa14
 80040cc:	4906      	ldr	r1, [pc, #24]	; (80040e8 <USBD_FS_SerialStrDescriptor+0x34>)
 80040ce:	2208      	movs	r2, #8
 80040d0:	f7ff ffda 	bl	8004088 <IntToUnicode>
 80040d4:	2204      	movs	r2, #4
 80040d6:	3110      	adds	r1, #16
 80040d8:	4620      	mov	r0, r4
 80040da:	f7ff ffd5 	bl	8004088 <IntToUnicode>
 80040de:	4803      	ldr	r0, [pc, #12]	; (80040ec <USBD_FS_SerialStrDescriptor+0x38>)
 80040e0:	bd10      	pop	{r4, pc}
 80040e2:	bf00      	nop
 80040e4:	1fff7000 	.word	0x1fff7000
 80040e8:	200000ee 	.word	0x200000ee
 80040ec:	200000ec 	.word	0x200000ec

080040f0 <USBD_FS_ManufacturerStrDescriptor>:
 80040f0:	b510      	push	{r4, lr}
 80040f2:	4c04      	ldr	r4, [pc, #16]	; (8004104 <USBD_FS_ManufacturerStrDescriptor+0x14>)
 80040f4:	4804      	ldr	r0, [pc, #16]	; (8004108 <USBD_FS_ManufacturerStrDescriptor+0x18>)
 80040f6:	460a      	mov	r2, r1
 80040f8:	4621      	mov	r1, r4
 80040fa:	f7ff ff06 	bl	8003f0a <USBD_GetString>
 80040fe:	4620      	mov	r0, r4
 8004100:	bd10      	pop	{r4, pc}
 8004102:	bf00      	nop
 8004104:	20001524 	.word	0x20001524
 8004108:	08004684 	.word	0x08004684

0800410c <USBD_FS_ProductStrDescriptor>:
 800410c:	b510      	push	{r4, lr}
 800410e:	4c04      	ldr	r4, [pc, #16]	; (8004120 <USBD_FS_ProductStrDescriptor+0x14>)
 8004110:	4804      	ldr	r0, [pc, #16]	; (8004124 <USBD_FS_ProductStrDescriptor+0x18>)
 8004112:	460a      	mov	r2, r1
 8004114:	4621      	mov	r1, r4
 8004116:	f7ff fef8 	bl	8003f0a <USBD_GetString>
 800411a:	4620      	mov	r0, r4
 800411c:	bd10      	pop	{r4, pc}
 800411e:	bf00      	nop
 8004120:	20001524 	.word	0x20001524
 8004124:	08004697 	.word	0x08004697

08004128 <USBD_FS_ConfigStrDescriptor>:
 8004128:	b510      	push	{r4, lr}
 800412a:	4c04      	ldr	r4, [pc, #16]	; (800413c <USBD_FS_ConfigStrDescriptor+0x14>)
 800412c:	4804      	ldr	r0, [pc, #16]	; (8004140 <USBD_FS_ConfigStrDescriptor+0x18>)
 800412e:	460a      	mov	r2, r1
 8004130:	4621      	mov	r1, r4
 8004132:	f7ff feea 	bl	8003f0a <USBD_GetString>
 8004136:	4620      	mov	r0, r4
 8004138:	bd10      	pop	{r4, pc}
 800413a:	bf00      	nop
 800413c:	20001524 	.word	0x20001524
 8004140:	080046ad 	.word	0x080046ad

08004144 <USBD_FS_InterfaceStrDescriptor>:
 8004144:	b510      	push	{r4, lr}
 8004146:	4c04      	ldr	r4, [pc, #16]	; (8004158 <USBD_FS_InterfaceStrDescriptor+0x14>)
 8004148:	4804      	ldr	r0, [pc, #16]	; (800415c <USBD_FS_InterfaceStrDescriptor+0x18>)
 800414a:	460a      	mov	r2, r1
 800414c:	4621      	mov	r1, r4
 800414e:	f7ff fedc 	bl	8003f0a <USBD_GetString>
 8004152:	4620      	mov	r0, r4
 8004154:	bd10      	pop	{r4, pc}
 8004156:	bf00      	nop
 8004158:	20001524 	.word	0x20001524
 800415c:	080046b8 	.word	0x080046b8

08004160 <HAL_PCD_MspInit>:
 8004160:	b530      	push	{r4, r5, lr}
 8004162:	b097      	sub	sp, #92	; 0x5c
 8004164:	4604      	mov	r4, r0
 8004166:	2214      	movs	r2, #20
 8004168:	2100      	movs	r1, #0
 800416a:	a802      	add	r0, sp, #8
 800416c:	f000 fa2a 	bl	80045c4 <memset>
 8004170:	223c      	movs	r2, #60	; 0x3c
 8004172:	2100      	movs	r1, #0
 8004174:	a807      	add	r0, sp, #28
 8004176:	f000 fa25 	bl	80045c4 <memset>
 800417a:	6823      	ldr	r3, [r4, #0]
 800417c:	f1b3 4fa0 	cmp.w	r3, #1342177280	; 0x50000000
 8004180:	d137      	bne.n	80041f2 <HAL_PCD_MspInit+0x92>
 8004182:	2320      	movs	r3, #32
 8004184:	a807      	add	r0, sp, #28
 8004186:	9307      	str	r3, [sp, #28]
 8004188:	f7fe f804 	bl	8002194 <HAL_RCCEx_PeriphCLKConfig>
 800418c:	b108      	cbz	r0, 8004192 <HAL_PCD_MspInit+0x32>
 800418e:	f7fc f9b7 	bl	8000500 <Error_Handler>
 8004192:	4c19      	ldr	r4, [pc, #100]	; (80041f8 <HAL_PCD_MspInit+0x98>)
 8004194:	4819      	ldr	r0, [pc, #100]	; (80041fc <HAL_PCD_MspInit+0x9c>)
 8004196:	2500      	movs	r5, #0
 8004198:	9500      	str	r5, [sp, #0]
 800419a:	6b23      	ldr	r3, [r4, #48]	; 0x30
 800419c:	f043 0301 	orr.w	r3, r3, #1
 80041a0:	6323      	str	r3, [r4, #48]	; 0x30
 80041a2:	6b23      	ldr	r3, [r4, #48]	; 0x30
 80041a4:	9504      	str	r5, [sp, #16]
 80041a6:	f003 0301 	and.w	r3, r3, #1
 80041aa:	9300      	str	r3, [sp, #0]
 80041ac:	f44f 52c0 	mov.w	r2, #6144	; 0x1800
 80041b0:	9b00      	ldr	r3, [sp, #0]
 80041b2:	2302      	movs	r3, #2
 80041b4:	e9cd 2302 	strd	r2, r3, [sp, #8]
 80041b8:	2103      	movs	r1, #3
 80041ba:	230a      	movs	r3, #10
 80041bc:	e9cd 1305 	strd	r1, r3, [sp, #20]
 80041c0:	a902      	add	r1, sp, #8
 80041c2:	f7fd f8b7 	bl	8001334 <HAL_GPIO_Init>
 80041c6:	6b63      	ldr	r3, [r4, #52]	; 0x34
 80041c8:	f043 0380 	orr.w	r3, r3, #128	; 0x80
 80041cc:	6363      	str	r3, [r4, #52]	; 0x34
 80041ce:	9501      	str	r5, [sp, #4]
 80041d0:	6c63      	ldr	r3, [r4, #68]	; 0x44
 80041d2:	f443 4380 	orr.w	r3, r3, #16384	; 0x4000
 80041d6:	6463      	str	r3, [r4, #68]	; 0x44
 80041d8:	6c63      	ldr	r3, [r4, #68]	; 0x44
 80041da:	f403 4380 	and.w	r3, r3, #16384	; 0x4000
 80041de:	9301      	str	r3, [sp, #4]
 80041e0:	2043      	movs	r0, #67	; 0x43
 80041e2:	462a      	mov	r2, r5
 80041e4:	4629      	mov	r1, r5
 80041e6:	9b01      	ldr	r3, [sp, #4]
 80041e8:	f7fd f850 	bl	800128c <HAL_NVIC_SetPriority>
 80041ec:	2043      	movs	r0, #67	; 0x43
 80041ee:	f7fd f87f 	bl	80012f0 <HAL_NVIC_EnableIRQ>
 80041f2:	b017      	add	sp, #92	; 0x5c
 80041f4:	bd30      	pop	{r4, r5, pc}
 80041f6:	bf00      	nop
 80041f8:	40023800 	.word	0x40023800
 80041fc:	40020000 	.word	0x40020000

08004200 <HAL_PCD_SetupStageCallback>:
 8004200:	f200 41c4 	addw	r1, r0, #1220	; 0x4c4
 8004204:	f8d0 0508 	ldr.w	r0, [r0, #1288]	; 0x508
 8004208:	f7ff bad6 	b.w	80037b8 <USBD_LL_SetupStage>

0800420c <HAL_PCD_DataOutStageCallback>:
 800420c:	2324      	movs	r3, #36	; 0x24
 800420e:	fb03 0301 	mla	r3, r3, r1, r0
 8004212:	f8d0 0508 	ldr.w	r0, [r0, #1288]	; 0x508
 8004216:	f8d3 228c 	ldr.w	r2, [r3, #652]	; 0x28c
 800421a:	f7ff bafd 	b.w	8003818 <USBD_LL_DataOutStage>

0800421e <HAL_PCD_DataInStageCallback>:
 800421e:	2324      	movs	r3, #36	; 0x24
 8004220:	fb03 0301 	mla	r3, r3, r1, r0
 8004224:	f8d0 0508 	ldr.w	r0, [r0, #1288]	; 0x508
 8004228:	6cda      	ldr	r2, [r3, #76]	; 0x4c
 800422a:	f7ff bb2a 	b.w	8003882 <USBD_LL_DataInStage>

0800422e <HAL_PCD_SOFCallback>:
 800422e:	f8d0 0508 	ldr.w	r0, [r0, #1288]	; 0x508
 8004232:	f7ff bbc4 	b.w	80039be <USBD_LL_SOF>

08004236 <HAL_PCD_ResetCallback>:
 8004236:	68c3      	ldr	r3, [r0, #12]
 8004238:	2b02      	cmp	r3, #2
 800423a:	b510      	push	{r4, lr}
 800423c:	4604      	mov	r4, r0
 800423e:	d001      	beq.n	8004244 <HAL_PCD_ResetCallback+0xe>
 8004240:	f7fc f95e 	bl	8000500 <Error_Handler>
 8004244:	f8d4 0508 	ldr.w	r0, [r4, #1288]	; 0x508
 8004248:	2101      	movs	r1, #1
 800424a:	f7ff fba0 	bl	800398e <USBD_LL_SetSpeed>
 800424e:	f8d4 0508 	ldr.w	r0, [r4, #1288]	; 0x508
 8004252:	e8bd 4010 	ldmia.w	sp!, {r4, lr}
 8004256:	f7ff bb6b 	b.w	8003930 <USBD_LL_Reset>
	...

0800425c <HAL_PCD_SuspendCallback>:
 800425c:	b510      	push	{r4, lr}
 800425e:	4604      	mov	r4, r0
 8004260:	f8d0 0508 	ldr.w	r0, [r0, #1288]	; 0x508
 8004264:	f7ff fb96 	bl	8003994 <USBD_LL_Suspend>
 8004268:	6822      	ldr	r2, [r4, #0]
 800426a:	f8d2 3e00 	ldr.w	r3, [r2, #3584]	; 0xe00
 800426e:	f043 0301 	orr.w	r3, r3, #1
 8004272:	f8c2 3e00 	str.w	r3, [r2, #3584]	; 0xe00
 8004276:	6a23      	ldr	r3, [r4, #32]
 8004278:	b123      	cbz	r3, 8004284 <HAL_PCD_SuspendCallback+0x28>
 800427a:	4a03      	ldr	r2, [pc, #12]	; (8004288 <HAL_PCD_SuspendCallback+0x2c>)
 800427c:	6913      	ldr	r3, [r2, #16]
 800427e:	f043 0306 	orr.w	r3, r3, #6
 8004282:	6113      	str	r3, [r2, #16]
 8004284:	bd10      	pop	{r4, pc}
 8004286:	bf00      	nop
 8004288:	e000ed00 	.word	0xe000ed00

0800428c <HAL_PCD_ResumeCallback>:
 800428c:	f8d0 0508 	ldr.w	r0, [r0, #1288]	; 0x508
 8004290:	f7ff bb8a 	b.w	80039a8 <USBD_LL_Resume>

08004294 <HAL_PCD_ISOOUTIncompleteCallback>:
 8004294:	f8d0 0508 	ldr.w	r0, [r0, #1288]	; 0x508
 8004298:	f7ff bbb2 	b.w	8003a00 <USBD_LL_IsoOUTIncomplete>

0800429c <HAL_PCD_ISOINIncompleteCallback>:
 800429c:	f8d0 0508 	ldr.w	r0, [r0, #1288]	; 0x508
 80042a0:	f7ff bb9a 	b.w	80039d8 <USBD_LL_IsoINIncomplete>

080042a4 <HAL_PCD_ConnectCallback>:
 80042a4:	f8d0 0508 	ldr.w	r0, [r0, #1288]	; 0x508
 80042a8:	f7ff bbbe 	b.w	8003a28 <USBD_LL_DevConnected>

080042ac <HAL_PCD_DisconnectCallback>:
 80042ac:	f8d0 0508 	ldr.w	r0, [r0, #1288]	; 0x508
 80042b0:	f7ff bbbc 	b.w	8003a2c <USBD_LL_DevDisconnected>

080042b4 <USBD_LL_Init>:
 80042b4:	b508      	push	{r3, lr}
 80042b6:	7802      	ldrb	r2, [r0, #0]
 80042b8:	bb3a      	cbnz	r2, 800430a <USBD_LL_Init+0x56>
 80042ba:	4b15      	ldr	r3, [pc, #84]	; (8004310 <USBD_LL_Init+0x5c>)
 80042bc:	2106      	movs	r1, #6
 80042be:	f8c3 0508 	str.w	r0, [r3, #1288]	; 0x508
 80042c2:	f8c0 32c8 	str.w	r3, [r0, #712]	; 0x2c8
 80042c6:	f04f 40a0 	mov.w	r0, #1342177280	; 0x50000000
 80042ca:	e9c3 0100 	strd	r0, r1, [r3]
 80042ce:	2102      	movs	r1, #2
 80042d0:	4618      	mov	r0, r3
 80042d2:	e9c3 1203 	strd	r1, r2, [r3, #12]
 80042d6:	e9c3 1206 	strd	r1, r2, [r3, #24]
 80042da:	e9c3 2208 	strd	r2, r2, [r3, #32]
 80042de:	e9c3 220a 	strd	r2, r2, [r3, #40]	; 0x28
 80042e2:	631a      	str	r2, [r3, #48]	; 0x30
 80042e4:	f7fd f8f9 	bl	80014da <HAL_PCD_Init>
 80042e8:	b108      	cbz	r0, 80042ee <USBD_LL_Init+0x3a>
 80042ea:	f7fc f909 	bl	8000500 <Error_Handler>
 80042ee:	2180      	movs	r1, #128	; 0x80
 80042f0:	4807      	ldr	r0, [pc, #28]	; (8004310 <USBD_LL_Init+0x5c>)
 80042f2:	f7fd fe69 	bl	8001fc8 <HAL_PCDEx_SetRxFiFo>
 80042f6:	2240      	movs	r2, #64	; 0x40
 80042f8:	2100      	movs	r1, #0
 80042fa:	4805      	ldr	r0, [pc, #20]	; (8004310 <USBD_LL_Init+0x5c>)
 80042fc:	f7fd fe44 	bl	8001f88 <HAL_PCDEx_SetTxFiFo>
 8004300:	4803      	ldr	r0, [pc, #12]	; (8004310 <USBD_LL_Init+0x5c>)
 8004302:	2280      	movs	r2, #128	; 0x80
 8004304:	2101      	movs	r1, #1
 8004306:	f7fd fe3f 	bl	8001f88 <HAL_PCDEx_SetTxFiFo>
 800430a:	2000      	movs	r0, #0
 800430c:	bd08      	pop	{r3, pc}
 800430e:	bf00      	nop
 8004310:	20001724 	.word	0x20001724

08004314 <USBD_LL_IsStallEP>:
 8004314:	f011 0f80 	tst.w	r1, #128	; 0x80
 8004318:	f8d0 32c8 	ldr.w	r3, [r0, #712]	; 0x2c8
 800431c:	f04f 0224 	mov.w	r2, #36	; 0x24
 8004320:	bf1b      	ittet	ne
 8004322:	f001 017f 	andne.w	r1, r1, #127	; 0x7f
 8004326:	fb02 3301 	mlane	r3, r2, r1, r3
 800432a:	fb02 3301 	mlaeq	r3, r2, r1, r3
 800432e:	f893 003e 	ldrbne.w	r0, [r3, #62]	; 0x3e
 8004332:	bf08      	it	eq
 8004334:	f893 027e 	ldrbeq.w	r0, [r3, #638]	; 0x27e
 8004338:	4770      	bx	lr

0800433a <USBD_LL_GetRxDataSize>:
 800433a:	f8d0 02c8 	ldr.w	r0, [r0, #712]	; 0x2c8
 800433e:	f7fd ba15 	b.w	800176c <HAL_PCD_EP_GetRxCount>
	...

08004344 <HAL_PCDEx_LPM_Callback>:
 8004344:	b510      	push	{r4, lr}
 8004346:	4604      	mov	r4, r0
 8004348:	b111      	cbz	r1, 8004350 <HAL_PCDEx_LPM_Callback+0xc>
 800434a:	2901      	cmp	r1, #1
 800434c:	d016      	beq.n	800437c <HAL_PCDEx_LPM_Callback+0x38>
 800434e:	bd10      	pop	{r4, pc}
 8004350:	6a03      	ldr	r3, [r0, #32]
 8004352:	b133      	cbz	r3, 8004362 <HAL_PCDEx_LPM_Callback+0x1e>
 8004354:	f7fc f8de 	bl	8000514 <SystemClock_Config>
 8004358:	4a12      	ldr	r2, [pc, #72]	; (80043a4 <HAL_PCDEx_LPM_Callback+0x60>)
 800435a:	6913      	ldr	r3, [r2, #16]
 800435c:	f023 0306 	bic.w	r3, r3, #6
 8004360:	6113      	str	r3, [r2, #16]
 8004362:	6822      	ldr	r2, [r4, #0]
 8004364:	f8d4 0508 	ldr.w	r0, [r4, #1288]	; 0x508
 8004368:	f8d2 3e00 	ldr.w	r3, [r2, #3584]	; 0xe00
 800436c:	f023 0301 	bic.w	r3, r3, #1
 8004370:	e8bd 4010 	ldmia.w	sp!, {r4, lr}
 8004374:	f8c2 3e00 	str.w	r3, [r2, #3584]	; 0xe00
 8004378:	f7ff bb16 	b.w	80039a8 <USBD_LL_Resume>
 800437c:	6802      	ldr	r2, [r0, #0]
 800437e:	f8d0 0508 	ldr.w	r0, [r0, #1288]	; 0x508
 8004382:	f8d2 3e00 	ldr.w	r3, [r2, #3584]	; 0xe00
 8004386:	f043 0301 	orr.w	r3, r3, #1
 800438a:	f8c2 3e00 	str.w	r3, [r2, #3584]	; 0xe00
 800438e:	f7ff fb01 	bl	8003994 <USBD_LL_Suspend>
 8004392:	6a23      	ldr	r3, [r4, #32]
 8004394:	2b00      	cmp	r3, #0
 8004396:	d0da      	beq.n	800434e <HAL_PCDEx_LPM_Callback+0xa>
 8004398:	4a02      	ldr	r2, [pc, #8]	; (80043a4 <HAL_PCDEx_LPM_Callback+0x60>)
 800439a:	6913      	ldr	r3, [r2, #16]
 800439c:	f043 0306 	orr.w	r3, r3, #6
 80043a0:	6113      	str	r3, [r2, #16]
 80043a2:	e7d4      	b.n	800434e <HAL_PCDEx_LPM_Callback+0xa>
 80043a4:	e000ed00 	.word	0xe000ed00

080043a8 <USBD_static_malloc>:
 80043a8:	4800      	ldr	r0, [pc, #0]	; (80043ac <USBD_static_malloc+0x4>)
 80043aa:	4770      	bx	lr
 80043ac:	20001c30 	.word	0x20001c30

080043b0 <USBD_static_free>:
 80043b0:	4770      	bx	lr
	...

080043b4 <USBD_Get_USB_Status>:
 80043b4:	2803      	cmp	r0, #3
 80043b6:	bf9a      	itte	ls
 80043b8:	4b01      	ldrls	r3, [pc, #4]	; (80043c0 <USBD_Get_USB_Status+0xc>)
 80043ba:	5c18      	ldrbls	r0, [r3, r0]
 80043bc:	2003      	movhi	r0, #3
 80043be:	4770      	bx	lr
 80043c0:	080046c6 	.word	0x080046c6

080043c4 <USBD_LL_Start>:
 80043c4:	b508      	push	{r3, lr}
 80043c6:	f8d0 02c8 	ldr.w	r0, [r0, #712]	; 0x2c8
 80043ca:	f7fd f911 	bl	80015f0 <HAL_PCD_Start>
 80043ce:	e8bd 4008 	ldmia.w	sp!, {r3, lr}
 80043d2:	f7ff bfef 	b.w	80043b4 <USBD_Get_USB_Status>

080043d6 <USBD_LL_OpenEP>:
 80043d6:	b510      	push	{r4, lr}
 80043d8:	4614      	mov	r4, r2
 80043da:	f8d0 02c8 	ldr.w	r0, [r0, #712]	; 0x2c8
 80043de:	461a      	mov	r2, r3
 80043e0:	4623      	mov	r3, r4
 80043e2:	f7fd f938 	bl	8001656 <HAL_PCD_EP_Open>
 80043e6:	e8bd 4010 	ldmia.w	sp!, {r4, lr}
 80043ea:	f7ff bfe3 	b.w	80043b4 <USBD_Get_USB_Status>

080043ee <USBD_LL_CloseEP>:
 80043ee:	b508      	push	{r3, lr}
 80043f0:	f8d0 02c8 	ldr.w	r0, [r0, #712]	; 0x2c8
 80043f4:	f7fd f967 	bl	80016c6 <HAL_PCD_EP_Close>
 80043f8:	e8bd 4008 	ldmia.w	sp!, {r3, lr}
 80043fc:	f7ff bfda 	b.w	80043b4 <USBD_Get_USB_Status>

08004400 <USBD_LL_StallEP>:
 8004400:	b508      	push	{r3, lr}
 8004402:	f8d0 02c8 	ldr.w	r0, [r0, #712]	; 0x2c8
 8004406:	f7fd f9d9 	bl	80017bc <HAL_PCD_EP_SetStall>
 800440a:	e8bd 4008 	ldmia.w	sp!, {r3, lr}
 800440e:	f7ff bfd1 	b.w	80043b4 <USBD_Get_USB_Status>

08004412 <USBD_LL_ClearStallEP>:
 8004412:	b508      	push	{r3, lr}
 8004414:	f8d0 02c8 	ldr.w	r0, [r0, #712]	; 0x2c8
 8004418:	f7fd fa0a 	bl	8001830 <HAL_PCD_EP_ClrStall>
 800441c:	e8bd 4008 	ldmia.w	sp!, {r3, lr}
 8004420:	f7ff bfc8 	b.w	80043b4 <USBD_Get_USB_Status>

08004424 <USBD_LL_SetUSBAddress>:
 8004424:	b508      	push	{r3, lr}
 8004426:	f8d0 02c8 	ldr.w	r0, [r0, #712]	; 0x2c8
 800442a:	f7fd f900 	bl	800162e <HAL_PCD_SetAddress>
 800442e:	e8bd 4008 	ldmia.w	sp!, {r3, lr}
 8004432:	f7ff bfbf 	b.w	80043b4 <USBD_Get_USB_Status>

08004436 <USBD_LL_Transmit>:
 8004436:	b508      	push	{r3, lr}
 8004438:	f8d0 02c8 	ldr.w	r0, [r0, #712]	; 0x2c8
 800443c:	f7fd f99e 	bl	800177c <HAL_PCD_EP_Transmit>
 8004440:	e8bd 4008 	ldmia.w	sp!, {r3, lr}
 8004444:	f7ff bfb6 	b.w	80043b4 <USBD_Get_USB_Status>

08004448 <USBD_LL_PrepareReceive>:
 8004448:	b508      	push	{r3, lr}
 800444a:	f8d0 02c8 	ldr.w	r0, [r0, #712]	; 0x2c8
 800444e:	f7fd f969 	bl	8001724 <HAL_PCD_EP_Receive>
 8004452:	e8bd 4008 	ldmia.w	sp!, {r3, lr}
 8004456:	f7ff bfad 	b.w	80043b4 <USBD_Get_USB_Status>
	...

0800445c <malloc>:
 800445c:	4b02      	ldr	r3, [pc, #8]	; (8004468 <malloc+0xc>)
 800445e:	4601      	mov	r1, r0
 8004460:	6818      	ldr	r0, [r3, #0]
 8004462:	f000 b823 	b.w	80044ac <_malloc_r>
 8004466:	bf00      	nop
 8004468:	20000154 	.word	0x20000154

0800446c <sbrk_aligned>:
 800446c:	b570      	push	{r4, r5, r6, lr}
 800446e:	4e0e      	ldr	r6, [pc, #56]	; (80044a8 <sbrk_aligned+0x3c>)
 8004470:	460c      	mov	r4, r1
 8004472:	6831      	ldr	r1, [r6, #0]
 8004474:	4605      	mov	r5, r0
 8004476:	b911      	cbnz	r1, 800447e <sbrk_aligned+0x12>
 8004478:	f000 f8ac 	bl	80045d4 <_sbrk_r>
 800447c:	6030      	str	r0, [r6, #0]
 800447e:	4621      	mov	r1, r4
 8004480:	4628      	mov	r0, r5
 8004482:	f000 f8a7 	bl	80045d4 <_sbrk_r>
 8004486:	1c43      	adds	r3, r0, #1
 8004488:	d00a      	beq.n	80044a0 <sbrk_aligned+0x34>
 800448a:	1cc4      	adds	r4, r0, #3
 800448c:	f024 0403 	bic.w	r4, r4, #3
 8004490:	42a0      	cmp	r0, r4
 8004492:	d007      	beq.n	80044a4 <sbrk_aligned+0x38>
 8004494:	1a21      	subs	r1, r4, r0
 8004496:	4628      	mov	r0, r5
 8004498:	f000 f89c 	bl	80045d4 <_sbrk_r>
 800449c:	3001      	adds	r0, #1
 800449e:	d101      	bne.n	80044a4 <sbrk_aligned+0x38>
 80044a0:	f04f 34ff 	mov.w	r4, #4294967295
 80044a4:	4620      	mov	r0, r4
 80044a6:	bd70      	pop	{r4, r5, r6, pc}
 80044a8:	20001e54 	.word	0x20001e54

080044ac <_malloc_r>:
 80044ac:	e92d 43f8 	stmdb	sp!, {r3, r4, r5, r6, r7, r8, r9, lr}
 80044b0:	1ccd      	adds	r5, r1, #3
 80044b2:	f025 0503 	bic.w	r5, r5, #3
 80044b6:	3508      	adds	r5, #8
 80044b8:	2d0c      	cmp	r5, #12
 80044ba:	bf38      	it	cc
 80044bc:	250c      	movcc	r5, #12
 80044be:	2d00      	cmp	r5, #0
 80044c0:	4607      	mov	r7, r0
 80044c2:	db01      	blt.n	80044c8 <_malloc_r+0x1c>
 80044c4:	42a9      	cmp	r1, r5
 80044c6:	d905      	bls.n	80044d4 <_malloc_r+0x28>
 80044c8:	230c      	movs	r3, #12
 80044ca:	603b      	str	r3, [r7, #0]
 80044cc:	2600      	movs	r6, #0
 80044ce:	4630      	mov	r0, r6
 80044d0:	e8bd 83f8 	ldmia.w	sp!, {r3, r4, r5, r6, r7, r8, r9, pc}
 80044d4:	f8df 80d0 	ldr.w	r8, [pc, #208]	; 80045a8 <_malloc_r+0xfc>
 80044d8:	f000 f868 	bl	80045ac <__malloc_lock>
 80044dc:	f8d8 3000 	ldr.w	r3, [r8]
 80044e0:	461c      	mov	r4, r3
 80044e2:	bb5c      	cbnz	r4, 800453c <_malloc_r+0x90>
 80044e4:	4629      	mov	r1, r5
 80044e6:	4638      	mov	r0, r7
 80044e8:	f7ff ffc0 	bl	800446c <sbrk_aligned>
 80044ec:	1c43      	adds	r3, r0, #1
 80044ee:	4604      	mov	r4, r0
 80044f0:	d155      	bne.n	800459e <_malloc_r+0xf2>
 80044f2:	f8d8 4000 	ldr.w	r4, [r8]
 80044f6:	4626      	mov	r6, r4
 80044f8:	2e00      	cmp	r6, #0
 80044fa:	d145      	bne.n	8004588 <_malloc_r+0xdc>
 80044fc:	2c00      	cmp	r4, #0
 80044fe:	d048      	beq.n	8004592 <_malloc_r+0xe6>
 8004500:	6823      	ldr	r3, [r4, #0]
 8004502:	4631      	mov	r1, r6
 8004504:	4638      	mov	r0, r7
 8004506:	eb04 0903 	add.w	r9, r4, r3
 800450a:	f000 f863 	bl	80045d4 <_sbrk_r>
 800450e:	4581      	cmp	r9, r0
 8004510:	d13f      	bne.n	8004592 <_malloc_r+0xe6>
 8004512:	6821      	ldr	r1, [r4, #0]
 8004514:	1a6d      	subs	r5, r5, r1
 8004516:	4629      	mov	r1, r5
 8004518:	4638      	mov	r0, r7
 800451a:	f7ff ffa7 	bl	800446c <sbrk_aligned>
 800451e:	3001      	adds	r0, #1
 8004520:	d037      	beq.n	8004592 <_malloc_r+0xe6>
 8004522:	6823      	ldr	r3, [r4, #0]
 8004524:	442b      	add	r3, r5
 8004526:	6023      	str	r3, [r4, #0]
 8004528:	f8d8 3000 	ldr.w	r3, [r8]
 800452c:	2b00      	cmp	r3, #0
 800452e:	d038      	beq.n	80045a2 <_malloc_r+0xf6>
 8004530:	685a      	ldr	r2, [r3, #4]
 8004532:	42a2      	cmp	r2, r4
 8004534:	d12b      	bne.n	800458e <_malloc_r+0xe2>
 8004536:	2200      	movs	r2, #0
 8004538:	605a      	str	r2, [r3, #4]
 800453a:	e00f      	b.n	800455c <_malloc_r+0xb0>
 800453c:	6822      	ldr	r2, [r4, #0]
 800453e:	1b52      	subs	r2, r2, r5
 8004540:	d41f      	bmi.n	8004582 <_malloc_r+0xd6>
 8004542:	2a0b      	cmp	r2, #11
 8004544:	d917      	bls.n	8004576 <_malloc_r+0xca>
 8004546:	1961      	adds	r1, r4, r5
 8004548:	42a3      	cmp	r3, r4
 800454a:	6025      	str	r5, [r4, #0]
 800454c:	bf18      	it	ne
 800454e:	6059      	strne	r1, [r3, #4]
 8004550:	6863      	ldr	r3, [r4, #4]
 8004552:	bf08      	it	eq
 8004554:	f8c8 1000 	streq.w	r1, [r8]
 8004558:	5162      	str	r2, [r4, r5]
 800455a:	604b      	str	r3, [r1, #4]
 800455c:	4638      	mov	r0, r7
 800455e:	f104 060b 	add.w	r6, r4, #11
 8004562:	f000 f829 	bl	80045b8 <__malloc_unlock>
 8004566:	f026 0607 	bic.w	r6, r6, #7
 800456a:	1d23      	adds	r3, r4, #4
 800456c:	1af2      	subs	r2, r6, r3
 800456e:	d0ae      	beq.n	80044ce <_malloc_r+0x22>
 8004570:	1b9b      	subs	r3, r3, r6
 8004572:	50a3      	str	r3, [r4, r2]
 8004574:	e7ab      	b.n	80044ce <_malloc_r+0x22>
 8004576:	42a3      	cmp	r3, r4
 8004578:	6862      	ldr	r2, [r4, #4]
 800457a:	d1dd      	bne.n	8004538 <_malloc_r+0x8c>
 800457c:	f8c8 2000 	str.w	r2, [r8]
 8004580:	e7ec      	b.n	800455c <_malloc_r+0xb0>
 8004582:	4623      	mov	r3, r4
 8004584:	6864      	ldr	r4, [r4, #4]
 8004586:	e7ac      	b.n	80044e2 <_malloc_r+0x36>
 8004588:	4634      	mov	r4, r6
 800458a:	6876      	ldr	r6, [r6, #4]
 800458c:	e7b4      	b.n	80044f8 <_malloc_r+0x4c>
 800458e:	4613      	mov	r3, r2
 8004590:	e7cc      	b.n	800452c <_malloc_r+0x80>
 8004592:	230c      	movs	r3, #12
 8004594:	603b      	str	r3, [r7, #0]
 8004596:	4638      	mov	r0, r7
 8004598:	f000 f80e 	bl	80045b8 <__malloc_unlock>
 800459c:	e797      	b.n	80044ce <_malloc_r+0x22>
 800459e:	6025      	str	r5, [r4, #0]
 80045a0:	e7dc      	b.n	800455c <_malloc_r+0xb0>
 80045a2:	605b      	str	r3, [r3, #4]
 80045a4:	deff      	udf	#255	; 0xff
 80045a6:	bf00      	nop
 80045a8:	20001e50 	.word	0x20001e50

080045ac <__malloc_lock>:
 80045ac:	4801      	ldr	r0, [pc, #4]	; (80045b4 <__malloc_lock+0x8>)
 80045ae:	f000 b84b 	b.w	8004648 <__retarget_lock_acquire_recursive>
 80045b2:	bf00      	nop
 80045b4:	20001f94 	.word	0x20001f94

080045b8 <__malloc_unlock>:
 80045b8:	4801      	ldr	r0, [pc, #4]	; (80045c0 <__malloc_unlock+0x8>)
 80045ba:	f000 b846 	b.w	800464a <__retarget_lock_release_recursive>
 80045be:	bf00      	nop
 80045c0:	20001f94 	.word	0x20001f94

080045c4 <memset>:
 80045c4:	4402      	add	r2, r0
 80045c6:	4603      	mov	r3, r0
 80045c8:	4293      	cmp	r3, r2
 80045ca:	d100      	bne.n	80045ce <memset+0xa>
 80045cc:	4770      	bx	lr
 80045ce:	f803 1b01 	strb.w	r1, [r3], #1
 80045d2:	e7f9      	b.n	80045c8 <memset+0x4>

080045d4 <_sbrk_r>:
 80045d4:	b538      	push	{r3, r4, r5, lr}
 80045d6:	4d06      	ldr	r5, [pc, #24]	; (80045f0 <_sbrk_r+0x1c>)
 80045d8:	2300      	movs	r3, #0
 80045da:	4604      	mov	r4, r0
 80045dc:	4608      	mov	r0, r1
 80045de:	602b      	str	r3, [r5, #0]
 80045e0:	f7fc fa44 	bl	8000a6c <_sbrk>
 80045e4:	1c43      	adds	r3, r0, #1
 80045e6:	d102      	bne.n	80045ee <_sbrk_r+0x1a>
 80045e8:	682b      	ldr	r3, [r5, #0]
 80045ea:	b103      	cbz	r3, 80045ee <_sbrk_r+0x1a>
 80045ec:	6023      	str	r3, [r4, #0]
 80045ee:	bd38      	pop	{r3, r4, r5, pc}
 80045f0:	20001f90 	.word	0x20001f90

080045f4 <__errno>:
 80045f4:	4b01      	ldr	r3, [pc, #4]	; (80045fc <__errno+0x8>)
 80045f6:	6818      	ldr	r0, [r3, #0]
 80045f8:	4770      	bx	lr
 80045fa:	bf00      	nop
 80045fc:	20000154 	.word	0x20000154

08004600 <__libc_init_array>:
 8004600:	b570      	push	{r4, r5, r6, lr}
 8004602:	4d0d      	ldr	r5, [pc, #52]	; (8004638 <__libc_init_array+0x38>)
 8004604:	4c0d      	ldr	r4, [pc, #52]	; (800463c <__libc_init_array+0x3c>)
 8004606:	1b64      	subs	r4, r4, r5
 8004608:	10a4      	asrs	r4, r4, #2
 800460a:	2600      	movs	r6, #0
 800460c:	42a6      	cmp	r6, r4
 800460e:	d109      	bne.n	8004624 <__libc_init_array+0x24>
 8004610:	4d0b      	ldr	r5, [pc, #44]	; (8004640 <__libc_init_array+0x40>)
 8004612:	4c0c      	ldr	r4, [pc, #48]	; (8004644 <__libc_init_array+0x44>)
 8004614:	f000 f81a 	bl	800464c <_init>
 8004618:	1b64      	subs	r4, r4, r5
 800461a:	10a4      	asrs	r4, r4, #2
 800461c:	2600      	movs	r6, #0
 800461e:	42a6      	cmp	r6, r4
 8004620:	d105      	bne.n	800462e <__libc_init_array+0x2e>
 8004622:	bd70      	pop	{r4, r5, r6, pc}
 8004624:	f855 3b04 	ldr.w	r3, [r5], #4
 8004628:	4798      	blx	r3
 800462a:	3601      	adds	r6, #1
 800462c:	e7ee      	b.n	800460c <__libc_init_array+0xc>
 800462e:	f855 3b04 	ldr.w	r3, [r5], #4
 8004632:	4798      	blx	r3
 8004634:	3601      	adds	r6, #1
 8004636:	e7f2      	b.n	800461e <__libc_init_array+0x1e>
 8004638:	080046d4 	.word	0x080046d4
 800463c:	080046d4 	.word	0x080046d4
 8004640:	080046d4 	.word	0x080046d4
 8004644:	080046d8 	.word	0x080046d8

08004648 <__retarget_lock_acquire_recursive>:
 8004648:	4770      	bx	lr

0800464a <__retarget_lock_release_recursive>:
 800464a:	4770      	bx	lr

0800464c <_init>:
 800464c:	b5f8      	push	{r3, r4, r5, r6, r7, lr}
 800464e:	bf00      	nop
 8004650:	bcf8      	pop	{r3, r4, r5, r6, r7}
 8004652:	bc08      	pop	{r3}
 8004654:	469e      	mov	lr, r3
 8004656:	4770      	bx	lr

08004658 <_fini>:
 8004658:	b5f8      	push	{r3, r4, r5, r6, r7, lr}
 800465a:	bf00      	nop
 800465c:	bcf8      	pop	{r3, r4, r5, r6, r7}
 800465e:	bc08      	pop	{r3}
 8004660:	469e      	mov	lr, r3
 8004662:	4770      	bx	lr
